MP2COD 4.12, COFF to COD File Converter
Copyright (c) 2007 Microchip Technology Inc.
Listing File Generated: Sat Dec 01 12:42:18 2007


Address  Value    Disassembly              Source                                                                           File
-------  -------  -----------------------  -------------------------------------------------------------------------------  -----
                                           /* $Id: c018i.c,v 1.7 2006/11/15 22:53:12 moshtaa Exp $ */                       C:\MCC18\src\traditional\startup\c018i.c
                                                                                                                            C:\MCC18\src\traditional\startup\c018i.c
                                           /* Copyright (c)1999 Microchip Technology */                                     C:\MCC18\src\traditional\startup\c018i.c
                                                                                                                            C:\MCC18\src\traditional\startup\c018i.c
                                           /* MPLAB-C18 startup code, including initialized data */                         C:\MCC18\src\traditional\startup\c018i.c
                                                                                                                            C:\MCC18\src\traditional\startup\c018i.c
                                           /* external reference to __init() function */                                    C:\MCC18\src\traditional\startup\c018i.c
                                           extern void __init (void);                                                       C:\MCC18\src\traditional\startup\c018i.c
                                           /* external reference to the user's main routine */                              C:\MCC18\src\traditional\startup\c018i.c
                                           extern void main (void);                                                         C:\MCC18\src\traditional\startup\c018i.c
                                           /* prototype for the startup function */                                         C:\MCC18\src\traditional\startup\c018i.c
                                           void _entry (void);                                                              C:\MCC18\src\traditional\startup\c018i.c
                                           void _startup (void);                                                            C:\MCC18\src\traditional\startup\c018i.c
                                           /* prototype for the initialized data setup */                                   C:\MCC18\src\traditional\startup\c018i.c
                                           void _do_cinit (void);                                                           C:\MCC18\src\traditional\startup\c018i.c
                                                                                                                            C:\MCC18\src\traditional\startup\c018i.c
                                           extern volatile near unsigned long short TBLPTR;                                 C:\MCC18\src\traditional\startup\c018i.c
                                           extern near unsigned FSR0;                                                       C:\MCC18\src\traditional\startup\c018i.c
                                           extern near char __FPFLAGS;                                                      C:\MCC18\src\traditional\startup\c018i.c
                                           #define RND 6                                                                    C:\MCC18\src\traditional\startup\c018i.c
                                                                                                                            C:\MCC18\src\traditional\startup\c018i.c
                                           #pragma code _entry_scn=0x000000                                                 C:\MCC18\src\traditional\startup\c018i.c
                                           void                                                                             C:\MCC18\src\traditional\startup\c018i.c
                                           _entry (void)                                                                    C:\MCC18\src\traditional\startup\c018i.c
                                           {                                                                                C:\MCC18\src\traditional\startup\c018i.c
000000   ef3c     GOTO      0x1678         _asm goto _startup _endasm                                                       C:\MCC18\src\traditional\startup\c018i.c
000002   f00b                                                                                                               
                                                                                                                            C:\MCC18\src\traditional\startup\c018i.c
000004   0012     RETURN    0x0            }                                                                                C:\MCC18\src\traditional\startup\c018i.c
                                           #pragma code _startup_scn                                                        C:\MCC18\src\traditional\startup\c018i.c
                                           void                                                                             C:\MCC18\src\traditional\startup\c018i.c
                                           _startup (void)                                                                  C:\MCC18\src\traditional\startup\c018i.c
                                           {                                                                                C:\MCC18\src\traditional\startup\c018i.c
                                             _asm                                                                           C:\MCC18\src\traditional\startup\c018i.c
                                               // Initialize the stack pointer                                              C:\MCC18\src\traditional\startup\c018i.c
001678   ee13     LFSR      0x1,0x300          lfsr 1, _stack                                                               C:\MCC18\src\traditional\startup\c018i.c
00167a   f000                                                                                                               
00167c   ee23     LFSR      0x2,0x300          lfsr 2, _stack                                                               C:\MCC18\src\traditional\startup\c018i.c
00167e   f000                                                                                                               
                                                                                                                            C:\MCC18\src\traditional\startup\c018i.c
001680   6af8     CLRF      0xf8,0x0           clrf TBLPTRU, 0 // 1st silicon doesn't do this on POR                        C:\MCC18\src\traditional\startup\c018i.c
                                                                                                                            C:\MCC18\src\traditional\startup\c018i.c
001682   9c01     BCF       0x1,0x6,0x0        bcf __FPFLAGS,RND,0 // Initialize rounding flag for floating point libs      C:\MCC18\src\traditional\startup\c018i.c
                                                                                                                            C:\MCC18\src\traditional\startup\c018i.c
                                               _endasm                                                                      C:\MCC18\src\traditional\startup\c018i.c
001684   ecd3     CALL      0x15a6,0x0         _do_cinit ();                                                                C:\MCC18\src\traditional\startup\c018i.c
001686   f00a                                                                                                               
                                                                                                                            C:\MCC18\src\traditional\startup\c018i.c
                                           loop:                                                                            C:\MCC18\src\traditional\startup\c018i.c
                                                                                                                            C:\MCC18\src\traditional\startup\c018i.c
                                             // If user defined __init is not found, the one in clib.lib will be used       C:\MCC18\src\traditional\startup\c018i.c
001688   ec51     CALL      0x16a2,0x0       __init ();                                                                     C:\MCC18\src\traditional\startup\c018i.c
00168a   f00b                                                                                                               
                                                                                                                            C:\MCC18\src\traditional\startup\c018i.c
                                             // Call the user's main routine                                                C:\MCC18\src\traditional\startup\c018i.c
00168c   ec22     CALL      0x1644,0x0       main ();                                                                       C:\MCC18\src\traditional\startup\c018i.c
00168e   f00b                                                                                                               
                                                                                                                            C:\MCC18\src\traditional\startup\c018i.c
001690   d7fb     BRA       0x1688           goto loop;                                                                     C:\MCC18\src\traditional\startup\c018i.c
001692   0012     RETURN    0x0            }                               /* end _startup() */                             C:\MCC18\src\traditional\startup\c018i.c
                                                                                                                            C:\MCC18\src\traditional\startup\c018i.c
                                           /* MPLAB-C18 initialized data memory support */                                  C:\MCC18\src\traditional\startup\c018i.c
                                           /* The linker will populate the _cinit table */                                  C:\MCC18\src\traditional\startup\c018i.c
                                           extern far rom struct                                                            C:\MCC18\src\traditional\startup\c018i.c
                                           {                                                                                C:\MCC18\src\traditional\startup\c018i.c
                                             unsigned short num_init;                                                       C:\MCC18\src\traditional\startup\c018i.c
                                             struct _init_entry                                                             C:\MCC18\src\traditional\startup\c018i.c
                                             {                                                                              C:\MCC18\src\traditional\startup\c018i.c
                                               unsigned long from;                                                          C:\MCC18\src\traditional\startup\c018i.c
                                               unsigned long to;                                                            C:\MCC18\src\traditional\startup\c018i.c
                                               unsigned long size;                                                          C:\MCC18\src\traditional\startup\c018i.c
                                             }                                                                              C:\MCC18\src\traditional\startup\c018i.c
                                             entries[];                                                                     C:\MCC18\src\traditional\startup\c018i.c
                                           }                                                                                C:\MCC18\src\traditional\startup\c018i.c
                                           _cinit;                                                                          C:\MCC18\src\traditional\startup\c018i.c
                                                                                                                            C:\MCC18\src\traditional\startup\c018i.c
                                           #pragma code _cinit_scn                                                          C:\MCC18\src\traditional\startup\c018i.c
                                           void                                                                             C:\MCC18\src\traditional\startup\c018i.c
                                           _do_cinit (void)                                                                 C:\MCC18\src\traditional\startup\c018i.c
                                           {                                                                                C:\MCC18\src\traditional\startup\c018i.c
                                             /* we'll make the assumption in the following code that these statics          C:\MCC18\src\traditional\startup\c018i.c
                                              * will be allocated into the same bank.                                       C:\MCC18\src\traditional\startup\c018i.c
                                              */                                                                            C:\MCC18\src\traditional\startup\c018i.c
                                             static short long prom;                                                        C:\MCC18\src\traditional\startup\c018i.c
                                             static unsigned short curr_byte;                                               C:\MCC18\src\traditional\startup\c018i.c
                                             static unsigned short curr_entry;                                              C:\MCC18\src\traditional\startup\c018i.c
                                             static short long data_ptr;                                                    C:\MCC18\src\traditional\startup\c018i.c
                                                                                                                            C:\MCC18\src\traditional\startup\c018i.c
                                             // Initialized data...                                                         C:\MCC18\src\traditional\startup\c018i.c
0015a6   0e2a     MOVLW     0x2a             TBLPTR = (short long)&_cinit;                                                  C:\MCC18\src\traditional\startup\c018i.c
0015a8   6ef6     MOVWF     0xf6,0x0                                                                                        
0015aa   0e08     MOVLW     0x8                                                                                             
0015ac   6ef7     MOVWF     0xf7,0x0                                                                                        
0015ae   0e00     MOVLW     0x0                                                                                             
0015b0   6ef8     MOVWF     0xf8,0x0                                                                                        
                                             _asm                                                                           C:\MCC18\src\traditional\startup\c018i.c
0015b2   0100     MOVLB     0x0                movlb data_ptr                                                               C:\MCC18\src\traditional\startup\c018i.c
0015b4   0009     TBLRDPOSTINC                 tblrdpostinc                                                                 C:\MCC18\src\traditional\startup\c018i.c
0015b6   50f5     MOVF      0xf5,0x0,0x0       movf TABLAT, 0, 0                                                            C:\MCC18\src\traditional\startup\c018i.c
0015b8   6fa0     MOVWF     0xa0,0x1           movwf curr_entry, 1                                                          C:\MCC18\src\traditional\startup\c018i.c
0015ba   0009     TBLRDPOSTINC                 tblrdpostinc                                                                 C:\MCC18\src\traditional\startup\c018i.c
0015bc   50f5     MOVF      0xf5,0x0,0x0       movf TABLAT, 0, 0                                                            C:\MCC18\src\traditional\startup\c018i.c
0015be   6fa1     MOVWF     0xa1,0x1           movwf curr_entry+1, 1                                                        C:\MCC18\src\traditional\startup\c018i.c
                                             _endasm                                                                        C:\MCC18\src\traditional\startup\c018i.c
                                               //while (curr_entry)                                                         C:\MCC18\src\traditional\startup\c018i.c
                                               //{                                                                          C:\MCC18\src\traditional\startup\c018i.c
                                               test:                                                                        C:\MCC18\src\traditional\startup\c018i.c
                                               _asm                                                                         C:\MCC18\src\traditional\startup\c018i.c
0015c0   e103     BNZ       0x15c8              bnz 3                                                                       C:\MCC18\src\traditional\startup\c018i.c
0015c2   67a0     TSTFSZ    0xa0,0x1           tstfsz curr_entry, 1                                                         C:\MCC18\src\traditional\startup\c018i.c
0015c4   d001     BRA       0x15c8             bra 1                                                                        C:\MCC18\src\traditional\startup\c018i.c
                                               _endasm                                                                      C:\MCC18\src\traditional\startup\c018i.c
0015c6   d03d     BRA       0x1642             goto done;                                                                   C:\MCC18\src\traditional\startup\c018i.c
                                                 /* Count down so we only have to look up the data in _cinit                C:\MCC18\src\traditional\startup\c018i.c
                                                  * once.                                                                   C:\MCC18\src\traditional\startup\c018i.c
                                                  *                                                                         C:\MCC18\src\traditional\startup\c018i.c
                                                  * At this point we know that TBLPTR points to the top of the current      C:\MCC18\src\traditional\startup\c018i.c
                                                  * entry in _cinit, so we can just start reading the from, to, and         C:\MCC18\src\traditional\startup\c018i.c
                                                  * size values.                                                            C:\MCC18\src\traditional\startup\c018i.c
                                                  */                                                                        C:\MCC18\src\traditional\startup\c018i.c
                                                 _asm                                                                       C:\MCC18\src\traditional\startup\c018i.c
                                           	/* read the source address */                                                   C:\MCC18\src\traditional\startup\c018i.c
0015c8   0009     TBLRDPOSTINC             	tblrdpostinc                                                                    C:\MCC18\src\traditional\startup\c018i.c
0015ca   50f5     MOVF      0xf5,0x0,0x0   	movf TABLAT, 0, 0                                                               C:\MCC18\src\traditional\startup\c018i.c
0015cc   6f9b     MOVWF     0x9b,0x1       	movwf prom, 1                                                                   C:\MCC18\src\traditional\startup\c018i.c
0015ce   0009     TBLRDPOSTINC             	tblrdpostinc                                                                    C:\MCC18\src\traditional\startup\c018i.c
0015d0   50f5     MOVF      0xf5,0x0,0x0   	movf TABLAT, 0, 0                                                               C:\MCC18\src\traditional\startup\c018i.c
0015d2   6f9c     MOVWF     0x9c,0x1       	movwf prom+1, 1                                                                 C:\MCC18\src\traditional\startup\c018i.c
0015d4   0009     TBLRDPOSTINC             	tblrdpostinc                                                                    C:\MCC18\src\traditional\startup\c018i.c
0015d6   50f5     MOVF      0xf5,0x0,0x0   	movf TABLAT, 0, 0                                                               C:\MCC18\src\traditional\startup\c018i.c
0015d8   6f9d     MOVWF     0x9d,0x1       	movwf prom+2, 1                                                                 C:\MCC18\src\traditional\startup\c018i.c
                                           	/* skip a byte since it's stored as a 32bit int */                              C:\MCC18\src\traditional\startup\c018i.c
0015da   0009     TBLRDPOSTINC             	tblrdpostinc                                                                    C:\MCC18\src\traditional\startup\c018i.c
                                           	/* read the destination address directly into FSR0 */                           C:\MCC18\src\traditional\startup\c018i.c
0015dc   0009     TBLRDPOSTINC             	tblrdpostinc                                                                    C:\MCC18\src\traditional\startup\c018i.c
0015de   50f5     MOVF      0xf5,0x0,0x0   	movf TABLAT, 0, 0                                                               C:\MCC18\src\traditional\startup\c018i.c
0015e0   6ee9     MOVWF     0xe9,0x0       	movwf FSR0L, 0                                                                  C:\MCC18\src\traditional\startup\c018i.c
0015e2   0009     TBLRDPOSTINC             	tblrdpostinc                                                                    C:\MCC18\src\traditional\startup\c018i.c
0015e4   50f5     MOVF      0xf5,0x0,0x0   	movf TABLAT, 0, 0                                                               C:\MCC18\src\traditional\startup\c018i.c
0015e6   6eea     MOVWF     0xea,0x0       	movwf FSR0H, 0                                                                  C:\MCC18\src\traditional\startup\c018i.c
                                           	/* skip two bytes since it's stored as a 32bit int */                           C:\MCC18\src\traditional\startup\c018i.c
0015e8   0009     TBLRDPOSTINC             	tblrdpostinc                                                                    C:\MCC18\src\traditional\startup\c018i.c
0015ea   0009     TBLRDPOSTINC             	tblrdpostinc                                                                    C:\MCC18\src\traditional\startup\c018i.c
                                           	/* read the destination address directly into FSR0 */                           C:\MCC18\src\traditional\startup\c018i.c
0015ec   0009     TBLRDPOSTINC             	tblrdpostinc                                                                    C:\MCC18\src\traditional\startup\c018i.c
0015ee   50f5     MOVF      0xf5,0x0,0x0   	movf TABLAT, 0, 0                                                               C:\MCC18\src\traditional\startup\c018i.c
0015f0   6f9e     MOVWF     0x9e,0x1       	movwf curr_byte, 1                                                              C:\MCC18\src\traditional\startup\c018i.c
0015f2   0009     TBLRDPOSTINC             	tblrdpostinc                                                                    C:\MCC18\src\traditional\startup\c018i.c
0015f4   50f5     MOVF      0xf5,0x0,0x0   	movf TABLAT, 0, 0                                                               C:\MCC18\src\traditional\startup\c018i.c
0015f6   6f9f     MOVWF     0x9f,0x1       	movwf curr_byte+1, 1                                                            C:\MCC18\src\traditional\startup\c018i.c
                                           	/* skip two bytes since it's stored as a 32bit int */                           C:\MCC18\src\traditional\startup\c018i.c
0015f8   0009     TBLRDPOSTINC             	tblrdpostinc                                                                    C:\MCC18\src\traditional\startup\c018i.c
0015fa   0009     TBLRDPOSTINC             	tblrdpostinc                                                                    C:\MCC18\src\traditional\startup\c018i.c
                                                 _endasm                                                                    C:\MCC18\src\traditional\startup\c018i.c
                                                 //prom = data_ptr->from;                                                   C:\MCC18\src\traditional\startup\c018i.c
                                                 //FSR0 = data_ptr->to;                                                     C:\MCC18\src\traditional\startup\c018i.c
                                                 //curr_byte = (unsigned short) data_ptr->size;                             C:\MCC18\src\traditional\startup\c018i.c
                                                 /* the table pointer now points to the next entry. Save it                 C:\MCC18\src\traditional\startup\c018i.c
                                                  * off since we'll be using the table pointer to do the copying            C:\MCC18\src\traditional\startup\c018i.c
                                                  * for the entry.                                                          C:\MCC18\src\traditional\startup\c018i.c
                                                  */                                                                        C:\MCC18\src\traditional\startup\c018i.c
0015fc   cff6     MOVFF     0xff6,0xa2           data_ptr = TBLPTR;                                                         C:\MCC18\src\traditional\startup\c018i.c
0015fe   f0a2                                                                                                               
001600   cff7     MOVFF     0xff7,0xa3                                                                                      
001602   f0a3                                                                                                               
001604   cff8     MOVFF     0xff8,0xa4                                                                                      
001606   f0a4                                                                                                               
                                                                                                                            C:\MCC18\src\traditional\startup\c018i.c
                                                 /* now assign the source address to the table pointer */                   C:\MCC18\src\traditional\startup\c018i.c
001608   c09b     MOVFF     0x9b,0xff6           TBLPTR = prom;                                                             C:\MCC18\src\traditional\startup\c018i.c
00160a   fff6                                                                                                               
00160c   c09c     MOVFF     0x9c,0xff7                                                                                      
00160e   fff7                                                                                                               
001610   c09d     MOVFF     0x9d,0xff8                                                                                      
001612   fff8                                                                                                               
                                                                                                                            C:\MCC18\src\traditional\startup\c018i.c
                                                 /* do the copy loop */                                                     C:\MCC18\src\traditional\startup\c018i.c
                                                 _asm                                                                       C:\MCC18\src\traditional\startup\c018i.c
                                                   // determine if we have any more bytes to copy                           C:\MCC18\src\traditional\startup\c018i.c
001614   0100     MOVLB     0x0            	movlb curr_byte                                                                 C:\MCC18\src\traditional\startup\c018i.c
001616   539e     MOVF      0x9e,0x1,0x1   	movf curr_byte, 1, 1                                                            C:\MCC18\src\traditional\startup\c018i.c
                                           copy_loop:                                                                       C:\MCC18\src\traditional\startup\c018i.c
001618   e102     BNZ       0x161e         	bnz 2 // copy_one_byte                                                          C:\MCC18\src\traditional\startup\c018i.c
00161a   539f     MOVF      0x9f,0x1,0x1   	movf curr_byte + 1, 1, 1                                                        C:\MCC18\src\traditional\startup\c018i.c
00161c   e007     BZ        0x162c         	bz 7 // done_copying                                                            C:\MCC18\src\traditional\startup\c018i.c
                                                                                                                            C:\MCC18\src\traditional\startup\c018i.c
                                           copy_one_byte:                                                                   C:\MCC18\src\traditional\startup\c018i.c
00161e   0009     TBLRDPOSTINC             	tblrdpostinc                                                                    C:\MCC18\src\traditional\startup\c018i.c
001620   50f5     MOVF      0xf5,0x0,0x0   	movf TABLAT, 0, 0                                                               C:\MCC18\src\traditional\startup\c018i.c
001622   6eee     MOVWF     0xee,0x0       	movwf POSTINC0, 0                                                               C:\MCC18\src\traditional\startup\c018i.c
                                                                                                                            C:\MCC18\src\traditional\startup\c018i.c
                                           	// decrement byte counter                                                       C:\MCC18\src\traditional\startup\c018i.c
001624   079e     DECF      0x9e,0x1,0x1   	decf curr_byte, 1, 1                                                            C:\MCC18\src\traditional\startup\c018i.c
001626   e2f8     BC        0x1618         	bc -8 // copy_loop                                                              C:\MCC18\src\traditional\startup\c018i.c
001628   079f     DECF      0x9f,0x1,0x1           decf curr_byte + 1, 1, 1                                                 C:\MCC18\src\traditional\startup\c018i.c
00162a   d7f9     BRA       0x161e         	bra -7 // copy_one_byte                                                         C:\MCC18\src\traditional\startup\c018i.c
                                                                                                                            C:\MCC18\src\traditional\startup\c018i.c
                                           done_copying:                                                                    C:\MCC18\src\traditional\startup\c018i.c
                                                                                                                            C:\MCC18\src\traditional\startup\c018i.c
                                                 _endasm                                                                    C:\MCC18\src\traditional\startup\c018i.c
                                                 /* restore the table pointer for the next entry */                         C:\MCC18\src\traditional\startup\c018i.c
00162c   c0a2     MOVFF     0xa2,0xff6           TBLPTR = data_ptr;                                                         C:\MCC18\src\traditional\startup\c018i.c
00162e   fff6                                                                                                               
001630   c0a3     MOVFF     0xa3,0xff7                                                                                      
001632   fff7                                                                                                               
001634   c0a4     MOVFF     0xa4,0xff8                                                                                      
001636   fff8                                                                                                               
                                                 /* next entry... */                                                        C:\MCC18\src\traditional\startup\c018i.c
001638   0100     MOVLB     0x0                  curr_entry--;                                                              C:\MCC18\src\traditional\startup\c018i.c
00163a   07a0     DECF      0xa0,0x1,0x1                                                                                    
00163c   0e00     MOVLW     0x0                                                                                             
00163e   5ba1     SUBWFB    0xa1,0x1,0x1                                                                                    
001640   d7bf     BRA       0x15c0               goto test;                                                                 C:\MCC18\src\traditional\startup\c018i.c
                                           done:                                                                            C:\MCC18\src\traditional\startup\c018i.c
                                           ;                                                                                C:\MCC18\src\traditional\startup\c018i.c
001642   0012     RETURN    0x0            }                                                                                C:\MCC18\src\traditional\startup\c018i.c
                                           /*********************************************************************           C:\Cdc\main.c
                                            *                                                                               C:\Cdc\main.c
                                            *                Microchip USB C18 Firmware Version 1.0                         C:\Cdc\main.c
                                            *                                                                               C:\Cdc\main.c
                                            *********************************************************************           C:\Cdc\main.c
                                            * FileName:        main.c                                                       C:\Cdc\main.c
                                            * Dependencies:    See INCLUDES section below                                   C:\Cdc\main.c
                                            * Processor:       PIC18                                                        C:\Cdc\main.c
                                            * Compiler:        C18 2.30.01+                                                 C:\Cdc\main.c
                                            * Company:         Microchip Technology, Inc.                                   C:\Cdc\main.c
                                            *                                                                               C:\Cdc\main.c
                                            * Software License Agreement                                                    C:\Cdc\main.c
                                            *                                                                               C:\Cdc\main.c
                                            * The software supplied herewith by Microchip Technology Incorporated           C:\Cdc\main.c
                                            * (the “Company”) for its PICmicro® Microcontroller is intended and             C:\Cdc\main.c
                                            * supplied to you, the Company’s customer, for use solely and                   C:\Cdc\main.c
                                            * exclusively on Microchip PICmicro Microcontroller products. The               C:\Cdc\main.c
                                            * software is owned by the Company and/or its supplier, and is                  C:\Cdc\main.c
                                            * protected under applicable copyright laws. All rights are reserved.           C:\Cdc\main.c
                                            * Any use in violation of the foregoing restrictions may subject the            C:\Cdc\main.c
                                            * user to criminal sanctions under applicable laws, as well as to               C:\Cdc\main.c
                                            * civil liability for the breach of the terms and conditions of this            C:\Cdc\main.c
                                            * license.                                                                      C:\Cdc\main.c
                                            *                                                                               C:\Cdc\main.c
                                            * THIS SOFTWARE IS PROVIDED IN AN “AS IS” CONDITION. NO WARRANTIES,             C:\Cdc\main.c
                                            * WHETHER EXPRESS, IMPLIED OR STATUTORY, INCLUDING, BUT NOT LIMITED             C:\Cdc\main.c
                                            * TO, IMPLIED WARRANTIES OF MERCHANTABILITY AND FITNESS FOR A                   C:\Cdc\main.c
                                            * PARTICULAR PURPOSE APPLY TO THIS SOFTWARE. THE COMPANY SHALL NOT,             C:\Cdc\main.c
                                            * IN ANY CIRCUMSTANCES, BE LIABLE FOR SPECIAL, INCIDENTAL OR                    C:\Cdc\main.c
                                            * CONSEQUENTIAL DAMAGES, FOR ANY REASON WHATSOEVER.                             C:\Cdc\main.c
                                            *                                                                               C:\Cdc\main.c
                                            * Author               Date        Comment                                      C:\Cdc\main.c
                                            *~~~~~~~~~~~~~~~~~~~~~~~~~~~~~~~~~~~~~~~~~~~~~~~~~~~~~~~~~~~~~~~~~~~~           C:\Cdc\main.c
                                            * Rawin Rojvanit       11/19/04    Original.                                    C:\Cdc\main.c
                                            ********************************************************************/           C:\Cdc\main.c
                                                                                                                            C:\Cdc\main.c
                                           /** I N C L U D E S **********************************************************/  C:\Cdc\main.c
                                           #include <p18cxxx.h>                                                             C:\Cdc\main.c
                                           #include "system\typedefs.h"                        // Required                  C:\Cdc\main.c
                                           #include "system\usb\usb.h"                         // Required                  C:\Cdc\main.c
                                           #include "io_cfg.h"                                 // Required                  C:\Cdc\main.c
                                                                                                                            C:\Cdc\main.c
                                           #include "system\usb\usb_compile_time_validation.h" // Optional                  C:\Cdc\main.c
                                           #include "user\user.h"                              // Modifiable                C:\Cdc\main.c
                                                                                                                            C:\Cdc\main.c
                                           /** V A R I A B L E S ********************************************************/  C:\Cdc\main.c
                                           #pragma udata                                                                    C:\Cdc\main.c
                                                                                                                            C:\Cdc\main.c
                                           /** P R I V A T E  P R O T O T Y P E S ***************************************/  C:\Cdc\main.c
                                           static void InitializeSystem(void);                                              C:\Cdc\main.c
                                           void USBTasks(void);                                                             C:\Cdc\main.c
                                                                                                                            C:\Cdc\main.c
                                           /** V E C T O R  R E M A P P I N G *******************************************/  C:\Cdc\main.c
                                                                                                                            C:\Cdc\main.c
                                           extern void _startup (void);        // See c018i.c in your C18 compiler dir      C:\Cdc\main.c
                                           #pragma code _RESET_INTERRUPT_VECTOR = 0x000800                                  C:\Cdc\main.c
                                           void _reset (void)                                                               C:\Cdc\main.c
                                           {                                                                                C:\Cdc\main.c
000800   ef3c     GOTO      0x1678             _asm goto _startup _endasm                                                   C:\Cdc\main.c
000802   f00b                                                                                                               
000804   0012     RETURN    0x0            }                                                                                C:\Cdc\main.c
                                           #pragma code                                                                     C:\Cdc\main.c
                                                                                                                            C:\Cdc\main.c
                                           /** D E C L A R A T I O N S **************************************************/  C:\Cdc\main.c
                                           #pragma code                                                                     C:\Cdc\main.c
                                           /******************************************************************************  C:\Cdc\main.c
                                            * Function:        void main(void)                                              C:\Cdc\main.c
                                            *                                                                               C:\Cdc\main.c
                                            * PreCondition:    None                                                         C:\Cdc\main.c
                                            *                                                                               C:\Cdc\main.c
                                            * Input:           None                                                         C:\Cdc\main.c
                                            *                                                                               C:\Cdc\main.c
                                            * Output:          None                                                         C:\Cdc\main.c
                                            *                                                                               C:\Cdc\main.c
                                            * Side Effects:    None                                                         C:\Cdc\main.c
                                            *                                                                               C:\Cdc\main.c
                                            * Overview:        Main program entry point.                                    C:\Cdc\main.c
                                            *                                                                               C:\Cdc\main.c
                                            * Note:            None                                                         C:\Cdc\main.c
                                            *****************************************************************************/  C:\Cdc\main.c
                                           void main(void)                                                                  C:\Cdc\main.c
                                           {                                                                                C:\Cdc\main.c
001644   d805     RCALL     0x1650             InitializeSystem();                                                          C:\Cdc\main.c
                                                                                                                            C:\Cdc\main.c
00164c   d7fc     BRA       0x1646             while(1)                                                                     C:\Cdc\main.c
                                               {                                                                            C:\Cdc\main.c
001646   d810     RCALL     0x1668                 USBTasks();         // USB Tasks                                         C:\Cdc\main.c
001648   ec1f     CALL      0x123e,0x0             ProcessIO();        // See user\user.c & .h                              C:\Cdc\main.c
00164a   f009                                                                                                               
                                               }//end while                                                                 C:\Cdc\main.c
00164e   0012     RETURN    0x0            }//end main                                                                      C:\Cdc\main.c
                                                                                                                            C:\Cdc\main.c
                                           /******************************************************************************  C:\Cdc\main.c
                                            * Function:        static void InitializeSystem(void)                           C:\Cdc\main.c
                                            *                                                                               C:\Cdc\main.c
                                            * PreCondition:    None                                                         C:\Cdc\main.c
                                            *                                                                               C:\Cdc\main.c
                                            * Input:           None                                                         C:\Cdc\main.c
                                            *                                                                               C:\Cdc\main.c
                                            * Output:          None                                                         C:\Cdc\main.c
                                            *                                                                               C:\Cdc\main.c
                                            * Side Effects:    None                                                         C:\Cdc\main.c
                                            *                                                                               C:\Cdc\main.c
                                            * Overview:        InitializeSystem is a centralize initialization routine.     C:\Cdc\main.c
                                            *                  All required USB initialization routines are called from     C:\Cdc\main.c
                                            *                  here.                                                        C:\Cdc\main.c
                                            *                                                                               C:\Cdc\main.c
                                            *                  User application initialization routine should also be       C:\Cdc\main.c
                                            *                  called from here.                                            C:\Cdc\main.c
                                            *                                                                               C:\Cdc\main.c
                                            * Note:            None                                                         C:\Cdc\main.c
                                            *****************************************************************************/  C:\Cdc\main.c
                                           static void InitializeSystem(void)                                               C:\Cdc\main.c
                                           {                                                                                C:\Cdc\main.c
001650   0e0f     MOVLW     0xf                ADCON1 |= 0x0F;                 // Default all pins to digital               C:\Cdc\main.c
001652   12c1     IORWF     0xc1,0x1,0x0                                                                                    
                                                                                                                            C:\Cdc\main.c
                                               #if defined(USE_USB_BUS_SENSE_IO)                                            C:\Cdc\main.c
                                               tris_usb_bus_sense = INPUT_PIN; // See io_cfg.h                              C:\Cdc\main.c
                                               #endif                                                                       C:\Cdc\main.c
                                                                                                                            C:\Cdc\main.c
                                               #if defined(USE_SELF_POWER_SENSE_IO)                                         C:\Cdc\main.c
                                               tris_self_power = INPUT_PIN;                                                 C:\Cdc\main.c
                                               #endif                                                                       C:\Cdc\main.c
                                                                                                                            C:\Cdc\main.c
001654   0e14     MOVLW     0x14               mInitializeUSBDriver();         // See usbdrv.h                              C:\Cdc\main.c
001656   6e6f     MOVWF     0x6f,0x0                                                                                        
001658   0100     MOVLB     0x0                                                                                             
00165a   6bad     CLRF      0xad,0x1                                                                                        
00165c   0100     MOVLB     0x0                                                                                             
00165e   6bae     CLRF      0xae,0x1                                                                                        
001660   0100     MOVLB     0x0                                                                                             
001662   6baf     CLRF      0xaf,0x1                                                                                        
                                                                                                                            C:\Cdc\main.c
001664   efda     GOTO      0x11b4             UserInit();                     // See user.c & .h                           C:\Cdc\main.c
001666   f008                                                                                                               
                                                                                                                            C:\Cdc\main.c
                                           }//end InitializeSystem                                                          C:\Cdc\main.c
                                                                                                                            C:\Cdc\main.c
                                           /******************************************************************************  C:\Cdc\main.c
                                            * Function:        void USBTasks(void)                                          C:\Cdc\main.c
                                            *                                                                               C:\Cdc\main.c
                                            * PreCondition:    InitializeSystem has been called.                            C:\Cdc\main.c
                                            *                                                                               C:\Cdc\main.c
                                            * Input:           None                                                         C:\Cdc\main.c
                                            *                                                                               C:\Cdc\main.c
                                            * Output:          None                                                         C:\Cdc\main.c
                                            *                                                                               C:\Cdc\main.c
                                            * Side Effects:    None                                                         C:\Cdc\main.c
                                            *                                                                               C:\Cdc\main.c
                                            * Overview:        Service loop for USB tasks.                                  C:\Cdc\main.c
                                            *                                                                               C:\Cdc\main.c
                                            * Note:            None                                                         C:\Cdc\main.c
                                            *****************************************************************************/  C:\Cdc\main.c
                                           void USBTasks(void)                                                              C:\Cdc\main.c
                                           {                                                                                C:\Cdc\main.c
                                               /*                                                                           C:\Cdc\main.c
                                                * Servicing Hardware                                                        C:\Cdc\main.c
                                                */                                                                          C:\Cdc\main.c
001668   ecae     CALL      0x135c,0x0         USBCheckBusStatus();                    // Must use polling method           C:\Cdc\main.c
00166a   f009                                                                                                               
00166c   be6f     BTFSC     0x6f,0x7,0x0       if(UCFGbits.UTEYE!=1)                                                        C:\Cdc\main.c
00166e   d002     BRA       0x1674                                                                                          
001670   eccd     CALL      0x139a,0x0             USBDriverService();                 // Interrupt or polling method       C:\Cdc\main.c
001672   f009                                                                                                               
                                                                                                                            C:\Cdc\main.c
                                               #if defined(USB_USE_CDC)                                                     C:\Cdc\main.c
001674   ef61     GOTO      0xac2              CDCTxService();                                                              C:\Cdc\main.c
001676   f005                                                                                                               
                                               #endif                                                                       C:\Cdc\main.c
                                                                                                                            C:\Cdc\main.c
                                           }// end USBTasks                                                                 C:\Cdc\main.c
                                                                                                                            C:\Cdc\main.c
                                           /** EOF main.c ***************************************************************/  C:\Cdc\main.c
                                           /*********************************************************************           C:\Cdc\system\usb\usbmmap.c
                                            *                                                                               C:\Cdc\system\usb\usbmmap.c
                                            *                Microchip USB C18 Firmware Version 1.0                         C:\Cdc\system\usb\usbmmap.c
                                            *                                                                               C:\Cdc\system\usb\usbmmap.c
                                            *********************************************************************           C:\Cdc\system\usb\usbmmap.c
                                            * FileName:        usbmmap.c                                                    C:\Cdc\system\usb\usbmmap.c
                                            * Dependencies:    See INCLUDES section below                                   C:\Cdc\system\usb\usbmmap.c
                                            * Processor:       PIC18                                                        C:\Cdc\system\usb\usbmmap.c
                                            * Compiler:        C18 2.30.01+                                                 C:\Cdc\system\usb\usbmmap.c
                                            * Company:         Microchip Technology, Inc.                                   C:\Cdc\system\usb\usbmmap.c
                                            *                                                                               C:\Cdc\system\usb\usbmmap.c
                                            * Software License Agreement                                                    C:\Cdc\system\usb\usbmmap.c
                                            *                                                                               C:\Cdc\system\usb\usbmmap.c
                                            * The software supplied herewith by Microchip Technology Incorporated           C:\Cdc\system\usb\usbmmap.c
                                            * (the “Company”) for its PICmicro® Microcontroller is intended and             C:\Cdc\system\usb\usbmmap.c
                                            * supplied to you, the Company’s customer, for use solely and                   C:\Cdc\system\usb\usbmmap.c
                                            * exclusively on Microchip PICmicro Microcontroller products. The               C:\Cdc\system\usb\usbmmap.c
                                            * software is owned by the Company and/or its supplier, and is                  C:\Cdc\system\usb\usbmmap.c
                                            * protected under applicable copyright laws. All rights are reserved.           C:\Cdc\system\usb\usbmmap.c
                                            * Any use in violation of the foregoing restrictions may subject the            C:\Cdc\system\usb\usbmmap.c
                                            * user to criminal sanctions under applicable laws, as well as to               C:\Cdc\system\usb\usbmmap.c
                                            * civil liability for the breach of the terms and conditions of this            C:\Cdc\system\usb\usbmmap.c
                                            * license.                                                                      C:\Cdc\system\usb\usbmmap.c
                                            *                                                                               C:\Cdc\system\usb\usbmmap.c
                                            * THIS SOFTWARE IS PROVIDED IN AN “AS IS” CONDITION. NO WARRANTIES,             C:\Cdc\system\usb\usbmmap.c
                                            * WHETHER EXPRESS, IMPLIED OR STATUTORY, INCLUDING, BUT NOT LIMITED             C:\Cdc\system\usb\usbmmap.c
                                            * TO, IMPLIED WARRANTIES OF MERCHANTABILITY AND FITNESS FOR A                   C:\Cdc\system\usb\usbmmap.c
                                            * PARTICULAR PURPOSE APPLY TO THIS SOFTWARE. THE COMPANY SHALL NOT,             C:\Cdc\system\usb\usbmmap.c
                                            * IN ANY CIRCUMSTANCES, BE LIABLE FOR SPECIAL, INCIDENTAL OR                    C:\Cdc\system\usb\usbmmap.c
                                            * CONSEQUENTIAL DAMAGES, FOR ANY REASON WHATSOEVER.                             C:\Cdc\system\usb\usbmmap.c
                                            *                                                                               C:\Cdc\system\usb\usbmmap.c
                                            * Author               Date        Comment                                      C:\Cdc\system\usb\usbmmap.c
                                            *~~~~~~~~~~~~~~~~~~~~~~~~~~~~~~~~~~~~~~~~~~~~~~~~~~~~~~~~~~~~~~~~~~~~           C:\Cdc\system\usb\usbmmap.c
                                            * Rawin Rojvanit       11/19/04    Original.                                    C:\Cdc\system\usb\usbmmap.c
                                            ********************************************************************/           C:\Cdc\system\usb\usbmmap.c
                                                                                                                            C:\Cdc\system\usb\usbmmap.c
                                           /******************************************************************************  C:\Cdc\system\usb\usbmmap.c
                                            * -usbmmap.c-                                                                   C:\Cdc\system\usb\usbmmap.c
                                            * USB Memory Map                                                                C:\Cdc\system\usb\usbmmap.c
                                            * This file is the USB memory manager; it serves as a compile-time memory       C:\Cdc\system\usb\usbmmap.c
                                            * allocator for the USB endpoints. It uses the compile time options passed      C:\Cdc\system\usb\usbmmap.c
                                            * from usbcfg.h to instantiate endpoints and endpoint buffer.                   C:\Cdc\system\usb\usbmmap.c
                                            *                                                                               C:\Cdc\system\usb\usbmmap.c
                                            * Each endpoint requires to have a set of Buffer Descriptor registers(BDT).     C:\Cdc\system\usb\usbmmap.c
                                            * A BDT is 4-byte long and has a specific RAM location for each endpoint.       C:\Cdc\system\usb\usbmmap.c
                                            * The BDT for endpoint 0 out is located at address 0x400 to 0x403.              C:\Cdc\system\usb\usbmmap.c
                                            * The BDT for endpoint 0 in is located at address 0x404 to 0x407.               C:\Cdc\system\usb\usbmmap.c
                                            * The BDT for endpoint 1 out is located at address 0x408 to 0x40B.              C:\Cdc\system\usb\usbmmap.c
                                            * and so on... The above allocation assumes the Ping-Pong Buffer Mode 0 is      C:\Cdc\system\usb\usbmmap.c
                                            * used. These locations are already hard-wired in the silicon. The point        C:\Cdc\system\usb\usbmmap.c
                                            * of doing instantiation, i.e. volatile far BDT ep0Bo;, is to provide the       C:\Cdc\system\usb\usbmmap.c
                                            * C compiler a way to address each variable directly. This is very important    C:\Cdc\system\usb\usbmmap.c
                                            * because when a register can be accessed directly, it saves execution time     C:\Cdc\system\usb\usbmmap.c
                                            * and reduces program size.                                                     C:\Cdc\system\usb\usbmmap.c
                                            *                                                                               C:\Cdc\system\usb\usbmmap.c
                                            * Endpoints are defined using the endpoint number and the direction             C:\Cdc\system\usb\usbmmap.c
                                            * of transfer. For simplicity, usbmmap.c only uses the endpoint number          C:\Cdc\system\usb\usbmmap.c
                                            * in the BDT register allocation scheme. This means if the usbcfg.h states      C:\Cdc\system\usb\usbmmap.c
                                            * that the MAX_EP_NUMBER is number 1, then four BDTs will be                    C:\Cdc\system\usb\usbmmap.c
                                            * instantiated: one each for endpoint0 in and endpoint0 out, which must         C:\Cdc\system\usb\usbmmap.c
                                            * always be instantiated for control transfer by default, and one each sets     C:\Cdc\system\usb\usbmmap.c
                                            * for endpoint1 in and endpoint1 out. The naming convention for instantiating   C:\Cdc\system\usb\usbmmap.c
                                            * BDT is                                                                        C:\Cdc\system\usb\usbmmap.c
                                            *                                                                               C:\Cdc\system\usb\usbmmap.c
                                            * ep<#>B<d>                                                                     C:\Cdc\system\usb\usbmmap.c
                                            *                                                                               C:\Cdc\system\usb\usbmmap.c
                                            * where # is the endpoint number, and d is the direction of                     C:\Cdc\system\usb\usbmmap.c
                                            * transfer, which could be either <i> or <o>.                                   C:\Cdc\system\usb\usbmmap.c
                                            *                                                                               C:\Cdc\system\usb\usbmmap.c
                                            * The USB memory manager uses MAX_EP_NUMBER, as defined in usbcfg.h, to define  C:\Cdc\system\usb\usbmmap.c
                                            * the endpoints to be instantiated. This represents the highest endpoint        C:\Cdc\system\usb\usbmmap.c
                                            * number to be allocated, not how many endpoints are used. Since the BDTs for   C:\Cdc\system\usb\usbmmap.c
                                            * endpoints have hardware-assigned addresses in Bank 4, setting this value too  C:\Cdc\system\usb\usbmmap.c
                                            * high may lead to inefficient use of data RAM. For example, if an application  C:\Cdc\system\usb\usbmmap.c
                                            * uses only endpoints EP0 and EP4, then the MAX_EP_NUMBER is 4, and not 2.      C:\Cdc\system\usb\usbmmap.c
                                            * The in-between endpoint BDTs in this example (EP1, EP2, and EP3) go unused,   C:\Cdc\system\usb\usbmmap.c
                                            * and the 24 bytes of memory associated with them are wasted. It does not make  C:\Cdc\system\usb\usbmmap.c
                                            * much sense to skip endpoints, but the final decision lies with the user.      C:\Cdc\system\usb\usbmmap.c
                                            *                                                                               C:\Cdc\system\usb\usbmmap.c
                                            * The next step is to assign the instantiated BDTs to different                 C:\Cdc\system\usb\usbmmap.c
                                            * USB functions. The firmware framework fundamentally assumes that every USB    C:\Cdc\system\usb\usbmmap.c
                                            * function should know which endpoint it is using, i.e., the default control    C:\Cdc\system\usb\usbmmap.c
                                            * transfer should know that it is using endpoint 0 in and endpoint 0 out.       C:\Cdc\system\usb\usbmmap.c
                                            * A HID class can choose which endpoint it wants to use, but once chosen, it    C:\Cdc\system\usb\usbmmap.c
                                            * should always know the number of the endpoint.                                C:\Cdc\system\usb\usbmmap.c
                                            *                                                                               C:\Cdc\system\usb\usbmmap.c
                                            * The assignment of endpoints to USB functions is managed centrally             C:\Cdc\system\usb\usbmmap.c
                                            * in usbcfg.h. This helps prevent the mistake of having more                    C:\Cdc\system\usb\usbmmap.c
                                            * than one USB function using the same endpoint. The "Endpoint Allocation"      C:\Cdc\system\usb\usbmmap.c
                                            * section in usbcfg.h provides examples for how to map USB endpoints to USB     C:\Cdc\system\usb\usbmmap.c
                                            * functions.                                                                    C:\Cdc\system\usb\usbmmap.c
                                            * Quite a few things can be mapped in that section. There is no                 C:\Cdc\system\usb\usbmmap.c
                                            * one correct way to do the mapping and the user has the choice to              C:\Cdc\system\usb\usbmmap.c
                                            * choose a method that is most suitable to the application.                     C:\Cdc\system\usb\usbmmap.c
                                            *                                                                               C:\Cdc\system\usb\usbmmap.c
                                            * Typically, however, a user will want to map the following for a given         C:\Cdc\system\usb\usbmmap.c
                                            * USB interface function:                                                       C:\Cdc\system\usb\usbmmap.c
                                            * 1. The USB interface ID                                                       C:\Cdc\system\usb\usbmmap.c
                                            * 2. The endpoint control registers (UEPn)                                      C:\Cdc\system\usb\usbmmap.c
                                            * 3. The BDT registers (ep<#>B<d>)                                              C:\Cdc\system\usb\usbmmap.c
                                            * 4. The endpoint size                                                          C:\Cdc\system\usb\usbmmap.c
                                            *                                                                               C:\Cdc\system\usb\usbmmap.c
                                            * Example: Assume a USB device class "foo", which uses one out endpoint         C:\Cdc\system\usb\usbmmap.c
                                            *          of size 64-byte and one in endpoint of size 64-byte, then:           C:\Cdc\system\usb\usbmmap.c
                                            *                                                                               C:\Cdc\system\usb\usbmmap.c
                                            * #define FOO_INTF_ID          0x00                                             C:\Cdc\system\usb\usbmmap.c
                                            * #define FOO_UEP              UEP1                                             C:\Cdc\system\usb\usbmmap.c
                                            * #define FOO_BD_OUT           ep1Bo                                            C:\Cdc\system\usb\usbmmap.c
                                            * #define FOO_BD_IN            ep1Bi                                            C:\Cdc\system\usb\usbmmap.c
                                            * #define FOO_EP_SIZE          64                                               C:\Cdc\system\usb\usbmmap.c
                                            *                                                                               C:\Cdc\system\usb\usbmmap.c
                                            * The mapping above has chosen class "foo" to use endpoint 1.                   C:\Cdc\system\usb\usbmmap.c
                                            * The names are arbitrary and can be anything other than FOO_??????.            C:\Cdc\system\usb\usbmmap.c
                                            * For abstraction, the code for class "foo" should use the abstract             C:\Cdc\system\usb\usbmmap.c
                                            * definitions of FOO_BD_OUT,FOO_BD_IN, and not ep1Bo or ep1Bi.                  C:\Cdc\system\usb\usbmmap.c
                                            *                                                                               C:\Cdc\system\usb\usbmmap.c
                                            * Note that the endpoint size defined in the usbcfg.h file is again             C:\Cdc\system\usb\usbmmap.c
                                            * used in the usbmmap.c file. This shows that the relationship between          C:\Cdc\system\usb\usbmmap.c
                                            * the two files are tightly related.                                            C:\Cdc\system\usb\usbmmap.c
                                            *                                                                               C:\Cdc\system\usb\usbmmap.c
                                            * The endpoint buffer for each USB function must be located in the              C:\Cdc\system\usb\usbmmap.c
                                            * dual-port RAM area and has to come after all the BDTs have been               C:\Cdc\system\usb\usbmmap.c
                                            * instantiated. An example declaration is:                                      C:\Cdc\system\usb\usbmmap.c
                                            * volatile far unsigned char[FOO_EP_SIZE] data;                                 C:\Cdc\system\usb\usbmmap.c
                                            *                                                                               C:\Cdc\system\usb\usbmmap.c
                                            * The 'volatile' keyword tells the compiler not to perform any code             C:\Cdc\system\usb\usbmmap.c
                                            * optimization on this variable because its content could be modified           C:\Cdc\system\usb\usbmmap.c
                                            * by the hardware. The 'far' keyword tells the compiler that this variable      C:\Cdc\system\usb\usbmmap.c
                                            * is not located in the Access RAM area (0x000 - 0x05F).                        C:\Cdc\system\usb\usbmmap.c
                                            *                                                                               C:\Cdc\system\usb\usbmmap.c
                                            * For the variable to be globally accessible by other files, it should be       C:\Cdc\system\usb\usbmmap.c
                                            * declared in the header file usbmmap.h as an extern definition, such as        C:\Cdc\system\usb\usbmmap.c
                                            * extern volatile far unsigned char[FOO_EP_SIZE] data;                          C:\Cdc\system\usb\usbmmap.c
                                            *                                                                               C:\Cdc\system\usb\usbmmap.c
                                            * Conclusion:                                                                   C:\Cdc\system\usb\usbmmap.c
                                            * In a short summary, the dependencies between usbcfg and usbmmap can           C:\Cdc\system\usb\usbmmap.c
                                            * be shown as:                                                                  C:\Cdc\system\usb\usbmmap.c
                                            *                                                                               C:\Cdc\system\usb\usbmmap.c
                                            * usbcfg[MAX_EP_NUMBER] -> usbmmap                                              C:\Cdc\system\usb\usbmmap.c
                                            * usbmmap[ep<#>B<d>] -> usbcfg                                                  C:\Cdc\system\usb\usbmmap.c
                                            * usbcfg[EP size] -> usbmmap                                                    C:\Cdc\system\usb\usbmmap.c
                                            * usbcfg[abstract ep definitions] -> usb9/hid/cdc/etc class code                C:\Cdc\system\usb\usbmmap.c
                                            * usbmmap[endpoint buffer variable] -> usb9/hid/cdc/etc class code              C:\Cdc\system\usb\usbmmap.c
                                            *                                                                               C:\Cdc\system\usb\usbmmap.c
                                            * Data mapping provides a means for direct addressing of BDT and endpoint       C:\Cdc\system\usb\usbmmap.c
                                            * buffer. This means less usage of pointers, which equates to a faster and      C:\Cdc\system\usb\usbmmap.c
                                            * smaller program code.                                                         C:\Cdc\system\usb\usbmmap.c
                                            *                                                                               C:\Cdc\system\usb\usbmmap.c
                                            *****************************************************************************/  C:\Cdc\system\usb\usbmmap.c
                                                                                                                            C:\Cdc\system\usb\usbmmap.c
                                           /** I N C L U D E S **********************************************************/  C:\Cdc\system\usb\usbmmap.c
                                           #include "system\typedefs.h"                                                     C:\Cdc\system\usb\usbmmap.c
                                           #include "system\usb\usb.h"                                                      C:\Cdc\system\usb\usbmmap.c
                                                                                                                            C:\Cdc\system\usb\usbmmap.c
                                           /** U S B  G L O B A L  V A R I A B L E S ************************************/  C:\Cdc\system\usb\usbmmap.c
                                           #pragma udata                                                                    C:\Cdc\system\usb\usbmmap.c
                                           byte usb_device_state;          // Device States: DETACHED, ATTACHED, ...        C:\Cdc\system\usb\usbmmap.c
                                           USB_DEVICE_STATUS usb_stat;     // Global USB flags                              C:\Cdc\system\usb\usbmmap.c
                                           byte usb_active_cfg;            // Value of current configuration                C:\Cdc\system\usb\usbmmap.c
                                           byte usb_alt_intf[MAX_NUM_INT]; // Array to keep track of the current alternate  C:\Cdc\system\usb\usbmmap.c
                                                                           // setting for each interface ID                 C:\Cdc\system\usb\usbmmap.c
                                                                                                                            C:\Cdc\system\usb\usbmmap.c
                                           /** U S B  F I X E D  L O C A T I O N  V A R I A B L E S *********************/  C:\Cdc\system\usb\usbmmap.c
                                           #pragma udata usbram4=0x400     //See Linker Script,usb4:0x400-0x4FF(256-byte)   C:\Cdc\system\usb\usbmmap.c
                                                                                                                            C:\Cdc\system\usb\usbmmap.c
                                           /******************************************************************************  C:\Cdc\system\usb\usbmmap.c
                                            * Section A: Buffer Descriptor Table                                            C:\Cdc\system\usb\usbmmap.c
                                            * - 0x400 - 0x4FF(max)                                                          C:\Cdc\system\usb\usbmmap.c
                                            * - MAX_EP_NUMBER is defined in autofiles\usbcfg.h                              C:\Cdc\system\usb\usbmmap.c
                                            * - BDT data type is defined in system\usb\usbmmap.h                            C:\Cdc\system\usb\usbmmap.c
                                            *****************************************************************************/  C:\Cdc\system\usb\usbmmap.c
                                                                                                                            C:\Cdc\system\usb\usbmmap.c
                                           #if(0 <= MAX_EP_NUMBER)                                                          C:\Cdc\system\usb\usbmmap.c
                                           volatile far BDT ep0Bo;         //Endpoint #0 BD Out                             C:\Cdc\system\usb\usbmmap.c
                                           volatile far BDT ep0Bi;         //Endpoint #0 BD In                              C:\Cdc\system\usb\usbmmap.c
                                           #endif                                                                           C:\Cdc\system\usb\usbmmap.c
                                                                                                                            C:\Cdc\system\usb\usbmmap.c
                                           #if(1 <= MAX_EP_NUMBER)                                                          C:\Cdc\system\usb\usbmmap.c
                                           volatile far BDT ep1Bo;         //Endpoint #1 BD Out                             C:\Cdc\system\usb\usbmmap.c
                                           volatile far BDT ep1Bi;         //Endpoint #1 BD In                              C:\Cdc\system\usb\usbmmap.c
                                           #endif                                                                           C:\Cdc\system\usb\usbmmap.c
                                                                                                                            C:\Cdc\system\usb\usbmmap.c
                                           #if(2 <= MAX_EP_NUMBER)                                                          C:\Cdc\system\usb\usbmmap.c
                                           volatile far BDT ep2Bo;         //Endpoint #2 BD Out                             C:\Cdc\system\usb\usbmmap.c
                                           volatile far BDT ep2Bi;         //Endpoint #2 BD In                              C:\Cdc\system\usb\usbmmap.c
                                           #endif                                                                           C:\Cdc\system\usb\usbmmap.c
                                                                                                                            C:\Cdc\system\usb\usbmmap.c
                                           #if(3 <= MAX_EP_NUMBER)                                                          C:\Cdc\system\usb\usbmmap.c
                                           volatile far BDT ep3Bo;         //Endpoint #3 BD Out                             C:\Cdc\system\usb\usbmmap.c
                                           volatile far BDT ep3Bi;         //Endpoint #3 BD In                              C:\Cdc\system\usb\usbmmap.c
                                           #endif                                                                           C:\Cdc\system\usb\usbmmap.c
                                                                                                                            C:\Cdc\system\usb\usbmmap.c
                                           #if(4 <= MAX_EP_NUMBER)                                                          C:\Cdc\system\usb\usbmmap.c
                                           volatile far BDT ep4Bo;         //Endpoint #4 BD Out                             C:\Cdc\system\usb\usbmmap.c
                                           volatile far BDT ep4Bi;         //Endpoint #4 BD In                              C:\Cdc\system\usb\usbmmap.c
                                           #endif                                                                           C:\Cdc\system\usb\usbmmap.c
                                                                                                                            C:\Cdc\system\usb\usbmmap.c
                                           #if(5 <= MAX_EP_NUMBER)                                                          C:\Cdc\system\usb\usbmmap.c
                                           volatile far BDT ep5Bo;         //Endpoint #5 BD Out                             C:\Cdc\system\usb\usbmmap.c
                                           volatile far BDT ep5Bi;         //Endpoint #5 BD In                              C:\Cdc\system\usb\usbmmap.c
                                           #endif                                                                           C:\Cdc\system\usb\usbmmap.c
                                                                                                                            C:\Cdc\system\usb\usbmmap.c
                                           #if(6 <= MAX_EP_NUMBER)                                                          C:\Cdc\system\usb\usbmmap.c
                                           volatile far BDT ep6Bo;         //Endpoint #6 BD Out                             C:\Cdc\system\usb\usbmmap.c
                                           volatile far BDT ep6Bi;         //Endpoint #6 BD In                              C:\Cdc\system\usb\usbmmap.c
                                           #endif                                                                           C:\Cdc\system\usb\usbmmap.c
                                                                                                                            C:\Cdc\system\usb\usbmmap.c
                                           #if(7 <= MAX_EP_NUMBER)                                                          C:\Cdc\system\usb\usbmmap.c
                                           volatile far BDT ep7Bo;         //Endpoint #7 BD Out                             C:\Cdc\system\usb\usbmmap.c
                                           volatile far BDT ep7Bi;         //Endpoint #7 BD In                              C:\Cdc\system\usb\usbmmap.c
                                           #endif                                                                           C:\Cdc\system\usb\usbmmap.c
                                                                                                                            C:\Cdc\system\usb\usbmmap.c
                                           #if(8 <= MAX_EP_NUMBER)                                                          C:\Cdc\system\usb\usbmmap.c
                                           volatile far BDT ep8Bo;         //Endpoint #8 BD Out                             C:\Cdc\system\usb\usbmmap.c
                                           volatile far BDT ep8Bi;         //Endpoint #8 BD In                              C:\Cdc\system\usb\usbmmap.c
                                           #endif                                                                           C:\Cdc\system\usb\usbmmap.c
                                                                                                                            C:\Cdc\system\usb\usbmmap.c
                                           #if(9 <= MAX_EP_NUMBER)                                                          C:\Cdc\system\usb\usbmmap.c
                                           volatile far BDT ep9Bo;         //Endpoint #9 BD Out                             C:\Cdc\system\usb\usbmmap.c
                                           volatile far BDT ep9Bi;         //Endpoint #9 BD In                              C:\Cdc\system\usb\usbmmap.c
                                           #endif                                                                           C:\Cdc\system\usb\usbmmap.c
                                                                                                                            C:\Cdc\system\usb\usbmmap.c
                                           #if(10 <= MAX_EP_NUMBER)                                                         C:\Cdc\system\usb\usbmmap.c
                                           volatile far BDT ep10Bo;        //Endpoint #10 BD Out                            C:\Cdc\system\usb\usbmmap.c
                                           volatile far BDT ep10Bi;        //Endpoint #10 BD In                             C:\Cdc\system\usb\usbmmap.c
                                           #endif                                                                           C:\Cdc\system\usb\usbmmap.c
                                                                                                                            C:\Cdc\system\usb\usbmmap.c
                                           #if(11 <= MAX_EP_NUMBER)                                                         C:\Cdc\system\usb\usbmmap.c
                                           volatile far BDT ep11Bo;        //Endpoint #11 BD Out                            C:\Cdc\system\usb\usbmmap.c
                                           volatile far BDT ep11Bi;        //Endpoint #11 BD In                             C:\Cdc\system\usb\usbmmap.c
                                           #endif                                                                           C:\Cdc\system\usb\usbmmap.c
                                                                                                                            C:\Cdc\system\usb\usbmmap.c
                                           #if(12 <= MAX_EP_NUMBER)                                                         C:\Cdc\system\usb\usbmmap.c
                                           volatile far BDT ep12Bo;        //Endpoint #12 BD Out                            C:\Cdc\system\usb\usbmmap.c
                                           volatile far BDT ep12Bi;        //Endpoint #12 BD In                             C:\Cdc\system\usb\usbmmap.c
                                           #endif                                                                           C:\Cdc\system\usb\usbmmap.c
                                                                                                                            C:\Cdc\system\usb\usbmmap.c
                                           #if(13 <= MAX_EP_NUMBER)                                                         C:\Cdc\system\usb\usbmmap.c
                                           volatile far BDT ep13Bo;        //Endpoint #13 BD Out                            C:\Cdc\system\usb\usbmmap.c
                                           volatile far BDT ep13Bi;        //Endpoint #13 BD In                             C:\Cdc\system\usb\usbmmap.c
                                           #endif                                                                           C:\Cdc\system\usb\usbmmap.c
                                                                                                                            C:\Cdc\system\usb\usbmmap.c
                                           #if(14 <= MAX_EP_NUMBER)                                                         C:\Cdc\system\usb\usbmmap.c
                                           volatile far BDT ep14Bo;        //Endpoint #14 BD Out                            C:\Cdc\system\usb\usbmmap.c
                                           volatile far BDT ep14Bi;        //Endpoint #14 BD In                             C:\Cdc\system\usb\usbmmap.c
                                           #endif                                                                           C:\Cdc\system\usb\usbmmap.c
                                                                                                                            C:\Cdc\system\usb\usbmmap.c
                                           #if(15 <= MAX_EP_NUMBER)                                                         C:\Cdc\system\usb\usbmmap.c
                                           volatile far BDT ep15Bo;        //Endpoint #15 BD Out                            C:\Cdc\system\usb\usbmmap.c
                                           volatile far BDT ep15Bi;        //Endpoint #15 BD In                             C:\Cdc\system\usb\usbmmap.c
                                           #endif                                                                           C:\Cdc\system\usb\usbmmap.c
                                                                                                                            C:\Cdc\system\usb\usbmmap.c
                                           /******************************************************************************  C:\Cdc\system\usb\usbmmap.c
                                            * Section B: EP0 Buffer Space                                                   C:\Cdc\system\usb\usbmmap.c
                                            ******************************************************************************  C:\Cdc\system\usb\usbmmap.c
                                            * - Two buffer areas are defined:                                               C:\Cdc\system\usb\usbmmap.c
                                            *                                                                               C:\Cdc\system\usb\usbmmap.c
                                            *   A. CTRL_TRF_SETUP                                                           C:\Cdc\system\usb\usbmmap.c
                                            *      - Size = EP0_BUFF_SIZE as defined in autofiles\usbcfg.h                  C:\Cdc\system\usb\usbmmap.c
                                            *      - Detailed data structure allows direct adddressing of bits and bytes.   C:\Cdc\system\usb\usbmmap.c
                                            *                                                                               C:\Cdc\system\usb\usbmmap.c
                                            *   B. CTRL_TRF_DATA                                                            C:\Cdc\system\usb\usbmmap.c
                                            *      - Size = EP0_BUFF_SIZE as defined in autofiles\usbcfg.h                  C:\Cdc\system\usb\usbmmap.c
                                            *      - Data structure allows direct adddressing of the first 8 bytes.         C:\Cdc\system\usb\usbmmap.c
                                            *                                                                               C:\Cdc\system\usb\usbmmap.c
                                            * - Both data types are defined in system\usb\usbdefs\usbdefs_ep0_buff.h        C:\Cdc\system\usb\usbmmap.c
                                            *****************************************************************************/  C:\Cdc\system\usb\usbmmap.c
                                           volatile far CTRL_TRF_SETUP SetupPkt;                                            C:\Cdc\system\usb\usbmmap.c
                                           volatile far CTRL_TRF_DATA CtrlTrfData;                                          C:\Cdc\system\usb\usbmmap.c
                                                                                                                            C:\Cdc\system\usb\usbmmap.c
                                           /******************************************************************************  C:\Cdc\system\usb\usbmmap.c
                                            * Section C: CDC Buffer                                                         C:\Cdc\system\usb\usbmmap.c
                                            ******************************************************************************  C:\Cdc\system\usb\usbmmap.c
                                            *                                                                               C:\Cdc\system\usb\usbmmap.c
                                            *****************************************************************************/  C:\Cdc\system\usb\usbmmap.c
                                           #pragma udata usbram5a=0x500    //See Linker Script,usb5:0x500-...               C:\Cdc\system\usb\usbmmap.c
                                           #if defined(USB_USE_CDC)                                                         C:\Cdc\system\usb\usbmmap.c
                                           volatile far unsigned char cdc_notice[CDC_INT_EP_SIZE];                          C:\Cdc\system\usb\usbmmap.c
                                           volatile far unsigned char cdc_data_rx[CDC_BULK_OUT_EP_SIZE];                    C:\Cdc\system\usb\usbmmap.c
                                           volatile far unsigned char cdc_data_tx[CDC_BULK_IN_EP_SIZE];                     C:\Cdc\system\usb\usbmmap.c
                                           #endif                                                                           C:\Cdc\system\usb\usbmmap.c
                                           #pragma udata                                                                    C:\Cdc\system\usb\usbmmap.c
                                                                                                                            C:\Cdc\system\usb\usbmmap.c
                                           /** EOF usbmmap.c ************************************************************/  C:\Cdc\system\usb\usbmmap.c
                                           /*********************************************************************           C:\Cdc\system\usb\usbdrv\usbdrv.c
                                            *                                                                               C:\Cdc\system\usb\usbdrv\usbdrv.c
                                            *                Microchip USB C18 Firmware Version 1.0                         C:\Cdc\system\usb\usbdrv\usbdrv.c
                                            *                                                                               C:\Cdc\system\usb\usbdrv\usbdrv.c
                                            *********************************************************************           C:\Cdc\system\usb\usbdrv\usbdrv.c
                                            * FileName:        usbdrv.c                                                     C:\Cdc\system\usb\usbdrv\usbdrv.c
                                            * Dependencies:    See INCLUDES section below                                   C:\Cdc\system\usb\usbdrv\usbdrv.c
                                            * Processor:       PIC18                                                        C:\Cdc\system\usb\usbdrv\usbdrv.c
                                            * Compiler:        C18 2.30.01+                                                 C:\Cdc\system\usb\usbdrv\usbdrv.c
                                            * Company:         Microchip Technology, Inc.                                   C:\Cdc\system\usb\usbdrv\usbdrv.c
                                            *                                                                               C:\Cdc\system\usb\usbdrv\usbdrv.c
                                            * Software License Agreement                                                    C:\Cdc\system\usb\usbdrv\usbdrv.c
                                            *                                                                               C:\Cdc\system\usb\usbdrv\usbdrv.c
                                            * The software supplied herewith by Microchip Technology Incorporated           C:\Cdc\system\usb\usbdrv\usbdrv.c
                                            * (the “Company”) for its PICmicro® Microcontroller is intended and             C:\Cdc\system\usb\usbdrv\usbdrv.c
                                            * supplied to you, the Company’s customer, for use solely and                   C:\Cdc\system\usb\usbdrv\usbdrv.c
                                            * exclusively on Microchip PICmicro Microcontroller products. The               C:\Cdc\system\usb\usbdrv\usbdrv.c
                                            * software is owned by the Company and/or its supplier, and is                  C:\Cdc\system\usb\usbdrv\usbdrv.c
                                            * protected under applicable copyright laws. All rights are reserved.           C:\Cdc\system\usb\usbdrv\usbdrv.c
                                            * Any use in violation of the foregoing restrictions may subject the            C:\Cdc\system\usb\usbdrv\usbdrv.c
                                            * user to criminal sanctions under applicable laws, as well as to               C:\Cdc\system\usb\usbdrv\usbdrv.c
                                            * civil liability for the breach of the terms and conditions of this            C:\Cdc\system\usb\usbdrv\usbdrv.c
                                            * license.                                                                      C:\Cdc\system\usb\usbdrv\usbdrv.c
                                            *                                                                               C:\Cdc\system\usb\usbdrv\usbdrv.c
                                            * THIS SOFTWARE IS PROVIDED IN AN “AS IS” CONDITION. NO WARRANTIES,             C:\Cdc\system\usb\usbdrv\usbdrv.c
                                            * WHETHER EXPRESS, IMPLIED OR STATUTORY, INCLUDING, BUT NOT LIMITED             C:\Cdc\system\usb\usbdrv\usbdrv.c
                                            * TO, IMPLIED WARRANTIES OF MERCHANTABILITY AND FITNESS FOR A                   C:\Cdc\system\usb\usbdrv\usbdrv.c
                                            * PARTICULAR PURPOSE APPLY TO THIS SOFTWARE. THE COMPANY SHALL NOT,             C:\Cdc\system\usb\usbdrv\usbdrv.c
                                            * IN ANY CIRCUMSTANCES, BE LIABLE FOR SPECIAL, INCIDENTAL OR                    C:\Cdc\system\usb\usbdrv\usbdrv.c
                                            * CONSEQUENTIAL DAMAGES, FOR ANY REASON WHATSOEVER.                             C:\Cdc\system\usb\usbdrv\usbdrv.c
                                            *                                                                               C:\Cdc\system\usb\usbdrv\usbdrv.c
                                            * Author               Date        Comment                                      C:\Cdc\system\usb\usbdrv\usbdrv.c
                                            *~~~~~~~~~~~~~~~~~~~~~~~~~~~~~~~~~~~~~~~~~~~~~~~~~~~~~~~~~~~~~~~~~~~~           C:\Cdc\system\usb\usbdrv\usbdrv.c
                                            * Rawin Rojvanit       11/19/04    Original.                                    C:\Cdc\system\usb\usbdrv\usbdrv.c
                                            ********************************************************************/           C:\Cdc\system\usb\usbdrv\usbdrv.c
                                                                                                                            C:\Cdc\system\usb\usbdrv\usbdrv.c
                                           /** I N C L U D E S **********************************************************/  C:\Cdc\system\usb\usbdrv\usbdrv.c
                                           #include <p18cxxx.h>                                                             C:\Cdc\system\usb\usbdrv\usbdrv.c
                                           #include "system\typedefs.h"                                                     C:\Cdc\system\usb\usbdrv\usbdrv.c
                                           #include "system\usb\usb.h"                                                      C:\Cdc\system\usb\usbdrv\usbdrv.c
                                           #include "io_cfg.h"             // Required for USBCheckBusStatus()              C:\Cdc\system\usb\usbdrv\usbdrv.c
                                                                                                                            C:\Cdc\system\usb\usbdrv\usbdrv.c
                                           /** V A R I A B L E S ********************************************************/  C:\Cdc\system\usb\usbdrv\usbdrv.c
                                           #pragma udata                                                                    C:\Cdc\system\usb\usbdrv\usbdrv.c
                                                                                                                            C:\Cdc\system\usb\usbdrv\usbdrv.c
                                           /** P R I V A T E  P R O T O T Y P E S ***************************************/  C:\Cdc\system\usb\usbdrv\usbdrv.c
                                           void USBModuleEnable(void);                                                      C:\Cdc\system\usb\usbdrv\usbdrv.c
                                           void USBModuleDisable(void);                                                     C:\Cdc\system\usb\usbdrv\usbdrv.c
                                                                                                                            C:\Cdc\system\usb\usbdrv\usbdrv.c
                                           void USBSuspend(void);                                                           C:\Cdc\system\usb\usbdrv\usbdrv.c
                                           void USBWakeFromSuspend(void);                                                   C:\Cdc\system\usb\usbdrv\usbdrv.c
                                                                                                                            C:\Cdc\system\usb\usbdrv\usbdrv.c
                                           void USBProtocolResetHandler(void);                                              C:\Cdc\system\usb\usbdrv\usbdrv.c
                                           void USB_SOF_Handler(void);                                                      C:\Cdc\system\usb\usbdrv\usbdrv.c
                                           void USBStallHandler(void);                                                      C:\Cdc\system\usb\usbdrv\usbdrv.c
                                           void USBErrorHandler(void);                                                      C:\Cdc\system\usb\usbdrv\usbdrv.c
                                                                                                                            C:\Cdc\system\usb\usbdrv\usbdrv.c
                                           /** D E C L A R A T I O N S **************************************************/  C:\Cdc\system\usb\usbdrv\usbdrv.c
                                           #pragma code                                                                     C:\Cdc\system\usb\usbdrv\usbdrv.c
                                           /******************************************************************************  C:\Cdc\system\usb\usbdrv\usbdrv.c
                                            * Function:        void USBCheckBusStatus(void)                                 C:\Cdc\system\usb\usbdrv\usbdrv.c
                                            *                                                                               C:\Cdc\system\usb\usbdrv\usbdrv.c
                                            * PreCondition:    None                                                         C:\Cdc\system\usb\usbdrv\usbdrv.c
                                            *                                                                               C:\Cdc\system\usb\usbdrv\usbdrv.c
                                            * Input:           None                                                         C:\Cdc\system\usb\usbdrv\usbdrv.c
                                            *                                                                               C:\Cdc\system\usb\usbdrv\usbdrv.c
                                            * Output:          None                                                         C:\Cdc\system\usb\usbdrv\usbdrv.c
                                            *                                                                               C:\Cdc\system\usb\usbdrv\usbdrv.c
                                            * Side Effects:    None                                                         C:\Cdc\system\usb\usbdrv\usbdrv.c
                                            *                                                                               C:\Cdc\system\usb\usbdrv\usbdrv.c
                                            * Overview:        This routine enables/disables the USB module by monitoring   C:\Cdc\system\usb\usbdrv\usbdrv.c
                                            *                  the USB power signal.                                        C:\Cdc\system\usb\usbdrv\usbdrv.c
                                            *                                                                               C:\Cdc\system\usb\usbdrv\usbdrv.c
                                            * Note:            None                                                         C:\Cdc\system\usb\usbdrv\usbdrv.c
                                            *****************************************************************************/  C:\Cdc\system\usb\usbdrv\usbdrv.c
                                           void USBCheckBusStatus(void)                                                     C:\Cdc\system\usb\usbdrv\usbdrv.c
                                           {                                                                                C:\Cdc\system\usb\usbdrv\usbdrv.c
                                               /**************************************************************************  C:\Cdc\system\usb\usbdrv\usbdrv.c
                                                * Bus Attachment & Detachment Detection                                     C:\Cdc\system\usb\usbdrv\usbdrv.c
                                                * usb_bus_sense is an i/o pin defined in io_cfg.h                           C:\Cdc\system\usb\usbdrv\usbdrv.c
                                                *************************************************************************/  C:\Cdc\system\usb\usbdrv\usbdrv.c
                                               #define USB_BUS_ATTACHED    1                                                C:\Cdc\system\usb\usbdrv\usbdrv.c
                                               #define USB_BUS_DETACHED    0                                                C:\Cdc\system\usb\usbdrv\usbdrv.c
                                                                                                                            C:\Cdc\system\usb\usbdrv\usbdrv.c
                                               if(usb_bus_sense == USB_BUS_ATTACHED)       // Is USB bus attached?          C:\Cdc\system\usb\usbdrv\usbdrv.c
                                               {                                                                            C:\Cdc\system\usb\usbdrv\usbdrv.c
00135c   a66d     BTFSS     0x6d,0x3,0x0           if(UCONbits.USBEN == 0)                 // Is the module off?            C:\Cdc\system\usb\usbdrv\usbdrv.c
00135e   d80f     RCALL     0x137e                     USBModuleEnable();                  // Is off, enable it             C:\Cdc\system\usb\usbdrv\usbdrv.c
                                               }                                                                            C:\Cdc\system\usb\usbdrv\usbdrv.c
001360   d002     BRA       0x1366             else                                                                         C:\Cdc\system\usb\usbdrv\usbdrv.c
                                               {                                                                            C:\Cdc\system\usb\usbdrv\usbdrv.c
001362   b66d     BTFSC     0x6d,0x3,0x0           if(UCONbits.USBEN == 1)                 // Is the module on?             C:\Cdc\system\usb\usbdrv\usbdrv.c
001364   d813     RCALL     0x138c                     USBModuleDisable();                 // Is on, disable it             C:\Cdc\system\usb\usbdrv\usbdrv.c
                                               }//end if(usb_bus_sense...)                                                  C:\Cdc\system\usb\usbdrv\usbdrv.c
                                                                                                                            C:\Cdc\system\usb\usbdrv\usbdrv.c
                                               /*                                                                           C:\Cdc\system\usb\usbdrv\usbdrv.c
                                                * After enabling the USB module, it takes some time for the voltage         C:\Cdc\system\usb\usbdrv\usbdrv.c
                                                * on the D+ or D- line to rise high enough to get out of the SE0 condition. C:\Cdc\system\usb\usbdrv\usbdrv.c
                                                * The USB Reset interrupt should not be unmasked until the SE0 condition is C:\Cdc\system\usb\usbdrv\usbdrv.c
                                                * cleared. This helps preventing the firmware from misinterpreting this     C:\Cdc\system\usb\usbdrv\usbdrv.c
                                                * unique event as a USB bus reset from the USB host.                        C:\Cdc\system\usb\usbdrv\usbdrv.c
                                                */                                                                          C:\Cdc\system\usb\usbdrv\usbdrv.c
001366   0100     MOVLB     0x0                if(usb_device_state == ATTACHED_STATE)                                       C:\Cdc\system\usb\usbdrv\usbdrv.c
001368   05ad     DECF      0xad,0x0,0x1                                                                                    
00136a   e108     BNZ       0x137c                                                                                          
                                               {                                                                            C:\Cdc\system\usb\usbdrv\usbdrv.c
00136c   ba6d     BTFSC     0x6d,0x5,0x0           if(!UCONbits.SE0)                                                        C:\Cdc\system\usb\usbdrv\usbdrv.c
00136e   d006     BRA       0x137c                                                                                          
                                                   {                                                                        C:\Cdc\system\usb\usbdrv\usbdrv.c
001370   6a68     CLRF      0x68,0x0                   UIR = 0;                        // Clear all USB interrupts          C:\Cdc\system\usb\usbdrv\usbdrv.c
001372   6a69     CLRF      0x69,0x0                   UIE = 0;                        // Mask all USB interrupts           C:\Cdc\system\usb\usbdrv\usbdrv.c
001374   8069     BSF       0x69,0x0,0x0               UIEbits.URSTIE = 1;             // Unmask RESET interrupt            C:\Cdc\system\usb\usbdrv\usbdrv.c
001376   8869     BSF       0x69,0x4,0x0               UIEbits.IDLEIE = 1;             // Unmask IDLE interrupt             C:\Cdc\system\usb\usbdrv\usbdrv.c
001378   0e02     MOVLW     0x2                        usb_device_state = POWERED_STATE;                                    C:\Cdc\system\usb\usbdrv\usbdrv.c
00137a   6fad     MOVWF     0xad,0x1                                                                                        
                                                   }//end if                           // else wait until SE0 is cleared    C:\Cdc\system\usb\usbdrv\usbdrv.c
                                               }//end if(usb_device_state == ATTACHED_STATE)                                C:\Cdc\system\usb\usbdrv\usbdrv.c
                                                                                                                            C:\Cdc\system\usb\usbdrv\usbdrv.c
00137c   0012     RETURN    0x0            }//end USBCheckBusStatus                                                         C:\Cdc\system\usb\usbdrv\usbdrv.c
                                                                                                                            C:\Cdc\system\usb\usbdrv\usbdrv.c
                                           /******************************************************************************  C:\Cdc\system\usb\usbdrv\usbdrv.c
                                            * Function:        void USBModuleEnable(void)                                   C:\Cdc\system\usb\usbdrv\usbdrv.c
                                            *                                                                               C:\Cdc\system\usb\usbdrv\usbdrv.c
                                            * PreCondition:    None                                                         C:\Cdc\system\usb\usbdrv\usbdrv.c
                                            *                                                                               C:\Cdc\system\usb\usbdrv\usbdrv.c
                                            * Input:           None                                                         C:\Cdc\system\usb\usbdrv\usbdrv.c
                                            *                                                                               C:\Cdc\system\usb\usbdrv\usbdrv.c
                                            * Output:          None                                                         C:\Cdc\system\usb\usbdrv\usbdrv.c
                                            *                                                                               C:\Cdc\system\usb\usbdrv\usbdrv.c
                                            * Side Effects:    None                                                         C:\Cdc\system\usb\usbdrv\usbdrv.c
                                            *                                                                               C:\Cdc\system\usb\usbdrv\usbdrv.c
                                            * Overview:        This routine enables the USB module.                         C:\Cdc\system\usb\usbdrv\usbdrv.c
                                            *                  An end designer should never have to call this routine       C:\Cdc\system\usb\usbdrv\usbdrv.c
                                            *                  manually. This routine should only be called from            C:\Cdc\system\usb\usbdrv\usbdrv.c
                                            *                  USBCheckBusStatus().                                         C:\Cdc\system\usb\usbdrv\usbdrv.c
                                            *                                                                               C:\Cdc\system\usb\usbdrv\usbdrv.c
                                            * Note:            See USBCheckBusStatus() for more information.                C:\Cdc\system\usb\usbdrv\usbdrv.c
                                            *****************************************************************************/  C:\Cdc\system\usb\usbdrv\usbdrv.c
                                           void USBModuleEnable(void)                                                       C:\Cdc\system\usb\usbdrv\usbdrv.c
                                           {                                                                                C:\Cdc\system\usb\usbdrv\usbdrv.c
00137e   6a6d     CLRF      0x6d,0x0           UCON = 0;                                                                    C:\Cdc\system\usb\usbdrv\usbdrv.c
001380   6a69     CLRF      0x69,0x0           UIE = 0;                                // Mask all USB interrupts           C:\Cdc\system\usb\usbdrv\usbdrv.c
001382   866d     BSF       0x6d,0x3,0x0       UCONbits.USBEN = 1;                     // Enable module & attach to bus     C:\Cdc\system\usb\usbdrv\usbdrv.c
001384   0100     MOVLB     0x0                usb_device_state = ATTACHED_STATE;      // Defined in usbmmap.c & .h         C:\Cdc\system\usb\usbdrv\usbdrv.c
001386   0e01     MOVLW     0x1                                                                                             
001388   6fad     MOVWF     0xad,0x1                                                                                        
00138a   0012     RETURN    0x0            }//end USBModuleEnable                                                           C:\Cdc\system\usb\usbdrv\usbdrv.c
                                                                                                                            C:\Cdc\system\usb\usbdrv\usbdrv.c
                                           /******************************************************************************  C:\Cdc\system\usb\usbdrv\usbdrv.c
                                            * Function:        void USBModuleDisable(void)                                  C:\Cdc\system\usb\usbdrv\usbdrv.c
                                            *                                                                               C:\Cdc\system\usb\usbdrv\usbdrv.c
                                            * PreCondition:    None                                                         C:\Cdc\system\usb\usbdrv\usbdrv.c
                                            *                                                                               C:\Cdc\system\usb\usbdrv\usbdrv.c
                                            * Input:           None                                                         C:\Cdc\system\usb\usbdrv\usbdrv.c
                                            *                                                                               C:\Cdc\system\usb\usbdrv\usbdrv.c
                                            * Output:          None                                                         C:\Cdc\system\usb\usbdrv\usbdrv.c
                                            *                                                                               C:\Cdc\system\usb\usbdrv\usbdrv.c
                                            * Side Effects:    None                                                         C:\Cdc\system\usb\usbdrv\usbdrv.c
                                            *                                                                               C:\Cdc\system\usb\usbdrv\usbdrv.c
                                            * Overview:        This routine disables the USB module.                        C:\Cdc\system\usb\usbdrv\usbdrv.c
                                            *                  An end designer should never have to call this routine       C:\Cdc\system\usb\usbdrv\usbdrv.c
                                            *                  manually. This routine should only be called from            C:\Cdc\system\usb\usbdrv\usbdrv.c
                                            *                  USBCheckBusStatus().                                         C:\Cdc\system\usb\usbdrv\usbdrv.c
                                            *                                                                               C:\Cdc\system\usb\usbdrv\usbdrv.c
                                            * Note:            See USBCheckBusStatus() for more information.                C:\Cdc\system\usb\usbdrv\usbdrv.c
                                            *****************************************************************************/  C:\Cdc\system\usb\usbdrv\usbdrv.c
                                           void USBModuleDisable(void)                                                      C:\Cdc\system\usb\usbdrv\usbdrv.c
                                           {                                                                                C:\Cdc\system\usb\usbdrv\usbdrv.c
00138c   6a6d     CLRF      0x6d,0x0           UCON = 0;                               // Disable module & detach from bus  C:\Cdc\system\usb\usbdrv\usbdrv.c
00138e   6a69     CLRF      0x69,0x0           UIE = 0;                                // Mask all USB interrupts           C:\Cdc\system\usb\usbdrv\usbdrv.c
001390   0100     MOVLB     0x0                usb_device_state = DETACHED_STATE;      // Defined in usbmmap.c & .h         C:\Cdc\system\usb\usbdrv\usbdrv.c
001392   6bad     CLRF      0xad,0x1                                                                                        
001394   0012     RETURN    0x0            }//end USBModuleDisable                                                          C:\Cdc\system\usb\usbdrv\usbdrv.c
                                                                                                                            C:\Cdc\system\usb\usbdrv\usbdrv.c
                                           /******************************************************************************  C:\Cdc\system\usb\usbdrv\usbdrv.c
                                            * Function:        void USBSoftDetach(void)                                     C:\Cdc\system\usb\usbdrv\usbdrv.c
                                            *                                                                               C:\Cdc\system\usb\usbdrv\usbdrv.c
                                            * PreCondition:    None                                                         C:\Cdc\system\usb\usbdrv\usbdrv.c
                                            *                                                                               C:\Cdc\system\usb\usbdrv\usbdrv.c
                                            * Input:           None                                                         C:\Cdc\system\usb\usbdrv\usbdrv.c
                                            *                                                                               C:\Cdc\system\usb\usbdrv\usbdrv.c
                                            * Output:          None                                                         C:\Cdc\system\usb\usbdrv\usbdrv.c
                                            *                                                                               C:\Cdc\system\usb\usbdrv\usbdrv.c
                                            * Side Effects:    The device will have to be re-enumerated to function again.  C:\Cdc\system\usb\usbdrv\usbdrv.c
                                            *                                                                               C:\Cdc\system\usb\usbdrv\usbdrv.c
                                            * Overview:        USBSoftDetach electrically disconnects the device from       C:\Cdc\system\usb\usbdrv\usbdrv.c
                                            *                  the bus. This is done by stop supplying Vusb voltage to      C:\Cdc\system\usb\usbdrv\usbdrv.c
                                            *                  pull-up resistor. The pull-down resistors on the host        C:\Cdc\system\usb\usbdrv\usbdrv.c
                                            *                  side will pull both differential signal lines low and        C:\Cdc\system\usb\usbdrv\usbdrv.c
                                            *                  the host registers the event as a disconnect.                C:\Cdc\system\usb\usbdrv\usbdrv.c
                                            *                                                                               C:\Cdc\system\usb\usbdrv\usbdrv.c
                                            *                  Since the USB cable is not physically disconnected, the      C:\Cdc\system\usb\usbdrv\usbdrv.c
                                            *                  power supply through the cable can still be sensed by        C:\Cdc\system\usb\usbdrv\usbdrv.c
                                            *                  the device. The next time USBCheckBusStatus() function       C:\Cdc\system\usb\usbdrv\usbdrv.c
                                            *                  is called, it will reconnect the device back to the bus.     C:\Cdc\system\usb\usbdrv\usbdrv.c
                                            *                                                                               C:\Cdc\system\usb\usbdrv\usbdrv.c
                                            * Note:            None                                                         C:\Cdc\system\usb\usbdrv\usbdrv.c
                                            *****************************************************************************/  C:\Cdc\system\usb\usbdrv\usbdrv.c
                                           void USBSoftDetach(void)                                                         C:\Cdc\system\usb\usbdrv\usbdrv.c
                                           {                                                                                C:\Cdc\system\usb\usbdrv\usbdrv.c
001396   efc6     GOTO      0x138c             USBModuleDisable();                                                          C:\Cdc\system\usb\usbdrv\usbdrv.c
001398   f009                                                                                                               
                                           }//end USBSoftDetach                                                             C:\Cdc\system\usb\usbdrv\usbdrv.c
                                                                                                                            C:\Cdc\system\usb\usbdrv\usbdrv.c
                                           /******************************************************************************  C:\Cdc\system\usb\usbdrv\usbdrv.c
                                            * Function:        void USBDriverService(void)                                  C:\Cdc\system\usb\usbdrv\usbdrv.c
                                            *                                                                               C:\Cdc\system\usb\usbdrv\usbdrv.c
                                            * PreCondition:    None                                                         C:\Cdc\system\usb\usbdrv\usbdrv.c
                                            *                                                                               C:\Cdc\system\usb\usbdrv\usbdrv.c
                                            * Input:           None                                                         C:\Cdc\system\usb\usbdrv\usbdrv.c
                                            *                                                                               C:\Cdc\system\usb\usbdrv\usbdrv.c
                                            * Output:          None                                                         C:\Cdc\system\usb\usbdrv\usbdrv.c
                                            *                                                                               C:\Cdc\system\usb\usbdrv\usbdrv.c
                                            * Side Effects:    None                                                         C:\Cdc\system\usb\usbdrv\usbdrv.c
                                            *                                                                               C:\Cdc\system\usb\usbdrv\usbdrv.c
                                            * Overview:        This routine is the heart of this firmware. It manages       C:\Cdc\system\usb\usbdrv\usbdrv.c
                                            *                  all USB interrupts.                                          C:\Cdc\system\usb\usbdrv\usbdrv.c
                                            *                                                                               C:\Cdc\system\usb\usbdrv\usbdrv.c
                                            * Note:            Device state transitions through the following stages:       C:\Cdc\system\usb\usbdrv\usbdrv.c
                                            *                  DETACHED -> ATTACHED -> POWERED -> DEFAULT ->                C:\Cdc\system\usb\usbdrv\usbdrv.c
                                            *                  ADDRESS_PENDING -> ADDRESSED -> CONFIGURED -> READY          C:\Cdc\system\usb\usbdrv\usbdrv.c
                                            *****************************************************************************/  C:\Cdc\system\usb\usbdrv\usbdrv.c
                                           void USBDriverService(void)                                                      C:\Cdc\system\usb\usbdrv\usbdrv.c
                                           {                                                                                C:\Cdc\system\usb\usbdrv\usbdrv.c
                                               /*                                                                           C:\Cdc\system\usb\usbdrv\usbdrv.c
                                                * Pointless to continue servicing if USB cable is not even attached.        C:\Cdc\system\usb\usbdrv\usbdrv.c
                                                */                                                                          C:\Cdc\system\usb\usbdrv\usbdrv.c
00139a   0100     MOVLB     0x0                if(usb_device_state == DETACHED_STATE) return;                               C:\Cdc\system\usb\usbdrv\usbdrv.c
00139c   51ad     MOVF      0xad,0x0,0x1                                                                                    
00139e   e101     BNZ       0x13a2                                                                                          
0013a0   d03a     BRA       0x1416                                                                                          
                                                                                                                            C:\Cdc\system\usb\usbdrv\usbdrv.c
                                               /*                                                                           C:\Cdc\system\usb\usbdrv\usbdrv.c
                                                * Task A: Service USB Activity Interrupt                                    C:\Cdc\system\usb\usbdrv\usbdrv.c
                                                */                                                                          C:\Cdc\system\usb\usbdrv\usbdrv.c
                                                                                                                            C:\Cdc\system\usb\usbdrv\usbdrv.c
0013a2   5068     MOVF      0x68,0x0,0x0       if(UIRbits.ACTVIF && UIEbits.ACTVIE)    USBWakeFromSuspend();                C:\Cdc\system\usb\usbdrv\usbdrv.c
0013a4   0b04     ANDLW     0x4                                                                                             
0013a6   e004     BZ        0x13b0                                                                                          
0013a8   5069     MOVF      0x69,0x0,0x0                                                                                    
0013aa   0b04     ANDLW     0x4                                                                                             
0013ac   e001     BZ        0x13b0                                                                                          
0013ae   d83c     RCALL     0x1428                                                                                          
                                                                                                                            C:\Cdc\system\usb\usbdrv\usbdrv.c
                                               /*                                                                           C:\Cdc\system\usb\usbdrv\usbdrv.c
                                                * Pointless to continue servicing if the device is in suspend mode.         C:\Cdc\system\usb\usbdrv\usbdrv.c
                                                */                                                                          C:\Cdc\system\usb\usbdrv\usbdrv.c
0013b0   b26d     BTFSC     0x6d,0x1,0x0       if(UCONbits.SUSPND==1) return;                                               C:\Cdc\system\usb\usbdrv\usbdrv.c
0013b2   d031     BRA       0x1416                                                                                          
                                                                                                                            C:\Cdc\system\usb\usbdrv\usbdrv.c
                                               /*                                                                           C:\Cdc\system\usb\usbdrv\usbdrv.c
                                                * Task B: Service USB Bus Reset Interrupt.                                  C:\Cdc\system\usb\usbdrv\usbdrv.c
                                                * When bus reset is received during suspend, ACTVIF will be set first,      C:\Cdc\system\usb\usbdrv\usbdrv.c
                                                * once the UCONbits.SUSPND is clear, then the URSTIF bit will be asserted.  C:\Cdc\system\usb\usbdrv\usbdrv.c
                                                * This is why URSTIF is checked after ACTVIF.                               C:\Cdc\system\usb\usbdrv\usbdrv.c
                                                */                                                                          C:\Cdc\system\usb\usbdrv\usbdrv.c
0013b4   5068     MOVF      0x68,0x0,0x0       if(UIRbits.URSTIF && UIEbits.URSTIE)    USBProtocolResetHandler();           C:\Cdc\system\usb\usbdrv\usbdrv.c
0013b6   0b01     ANDLW     0x1                                                                                             
0013b8   e004     BZ        0x13c2                                                                                          
0013ba   5069     MOVF      0x69,0x0,0x0                                                                                    
0013bc   0b01     ANDLW     0x1                                                                                             
0013be   e001     BZ        0x13c2                                                                                          
0013c0   d854     RCALL     0x146a                                                                                          
                                                                                                                            C:\Cdc\system\usb\usbdrv\usbdrv.c
                                               /*                                                                           C:\Cdc\system\usb\usbdrv\usbdrv.c
                                                * Task C: Service other USB interrupts                                      C:\Cdc\system\usb\usbdrv\usbdrv.c
                                                */                                                                          C:\Cdc\system\usb\usbdrv\usbdrv.c
0013c2   5068     MOVF      0x68,0x0,0x0       if(UIRbits.IDLEIF && UIEbits.IDLEIE)    USBSuspend();                        C:\Cdc\system\usb\usbdrv\usbdrv.c
0013c4   0b10     ANDLW     0x10                                                                                            
0013c6   e004     BZ        0x13d0                                                                                          
0013c8   5069     MOVF      0x69,0x0,0x0                                                                                    
0013ca   0b10     ANDLW     0x10                                                                                            
0013cc   e001     BZ        0x13d0                                                                                          
0013ce   d824     RCALL     0x1418                                                                                          
0013d0   5068     MOVF      0x68,0x0,0x0       if(UIRbits.SOFIF && UIEbits.SOFIE)      USB_SOF_Handler();                   C:\Cdc\system\usb\usbdrv\usbdrv.c
0013d2   0b40     ANDLW     0x40                                                                                            
0013d4   e004     BZ        0x13de                                                                                          
0013d6   5069     MOVF      0x69,0x0,0x0                                                                                    
0013d8   0b40     ANDLW     0x40                                                                                            
0013da   e001     BZ        0x13de                                                                                          
0013dc   d83b     RCALL     0x1454                                                                                          
0013de   5068     MOVF      0x68,0x0,0x0       if(UIRbits.STALLIF && UIEbits.STALLIE)  USBStallHandler();                   C:\Cdc\system\usb\usbdrv\usbdrv.c
0013e0   0b20     ANDLW     0x20                                                                                            
0013e2   e004     BZ        0x13ec                                                                                          
0013e4   5069     MOVF      0x69,0x0,0x0                                                                                    
0013e6   0b20     ANDLW     0x20                                                                                            
0013e8   e001     BZ        0x13ec                                                                                          
0013ea   d836     RCALL     0x1458                                                                                          
0013ec   5068     MOVF      0x68,0x0,0x0       if(UIRbits.UERRIF && UIEbits.UERRIE)    USBErrorHandler();                   C:\Cdc\system\usb\usbdrv\usbdrv.c
0013ee   0b02     ANDLW     0x2                                                                                             
0013f0   e004     BZ        0x13fa                                                                                          
0013f2   5069     MOVF      0x69,0x0,0x0                                                                                    
0013f4   0b02     ANDLW     0x2                                                                                             
0013f6   e001     BZ        0x13fa                                                                                          
0013f8   d836     RCALL     0x1466                                                                                          
                                                                                                                            C:\Cdc\system\usb\usbdrv\usbdrv.c
                                               /*                                                                           C:\Cdc\system\usb\usbdrv\usbdrv.c
                                                * Pointless to continue servicing if the host has not sent a bus reset.     C:\Cdc\system\usb\usbdrv\usbdrv.c
                                                * Once bus reset is received, the device transitions into the DEFAULT       C:\Cdc\system\usb\usbdrv\usbdrv.c
                                                * state and is ready for communication.                                     C:\Cdc\system\usb\usbdrv\usbdrv.c
                                                */                                                                          C:\Cdc\system\usb\usbdrv\usbdrv.c
0013fa   0e03     MOVLW     0x3                if(usb_device_state < DEFAULT_STATE) return;                                 C:\Cdc\system\usb\usbdrv\usbdrv.c
0013fc   0100     MOVLB     0x0                                                                                             
0013fe   5dad     SUBWF     0xad,0x0,0x1                                                                                    
001400   e201     BC        0x1404                                                                                          
001402   d009     BRA       0x1416                                                                                          
                                                                                                                            C:\Cdc\system\usb\usbdrv\usbdrv.c
                                               /*                                                                           C:\Cdc\system\usb\usbdrv\usbdrv.c
                                                * Task D: Servicing USB Transaction Complete Interrupt                      C:\Cdc\system\usb\usbdrv\usbdrv.c
                                                */                                                                          C:\Cdc\system\usb\usbdrv\usbdrv.c
001404   5068     MOVF      0x68,0x0,0x0       if(UIRbits.TRNIF && UIEbits.TRNIE)                                           C:\Cdc\system\usb\usbdrv\usbdrv.c
001406   0b08     ANDLW     0x8                                                                                             
001408   e006     BZ        0x1416                                                                                          
00140a   5069     MOVF      0x69,0x0,0x0                                                                                    
00140c   0b08     ANDLW     0x8                                                                                             
00140e   e003     BZ        0x1416                                                                                          
                                               {                                                                            C:\Cdc\system\usb\usbdrv\usbdrv.c
                                                   /*                                                                       C:\Cdc\system\usb\usbdrv\usbdrv.c
                                                    * USBCtrlEPService only services transactions over EP0.                 C:\Cdc\system\usb\usbdrv\usbdrv.c
                                                    * It ignores all other EP transactions.                                 C:\Cdc\system\usb\usbdrv\usbdrv.c
                                                    */                                                                      C:\Cdc\system\usb\usbdrv\usbdrv.c
001410   ec5d     CALL      0xeba,0x0              USBCtrlEPService();                                                      C:\Cdc\system\usb\usbdrv\usbdrv.c
001412   f007                                                                                                               
                                                                                                                            C:\Cdc\system\usb\usbdrv\usbdrv.c
                                                   /*                                                                       C:\Cdc\system\usb\usbdrv\usbdrv.c
                                                    * Other EP can be serviced later by responsible device class firmware.  C:\Cdc\system\usb\usbdrv\usbdrv.c
                                                    * Each device driver knows when an OUT or IN transaction is ready by    C:\Cdc\system\usb\usbdrv\usbdrv.c
                                                    * checking the buffer ownership bit.                                    C:\Cdc\system\usb\usbdrv\usbdrv.c
                                                    * An OUT EP should always be owned by SIE until the data is ready.      C:\Cdc\system\usb\usbdrv\usbdrv.c
                                                    * An IN EP should always be owned by CPU until the data is ready.       C:\Cdc\system\usb\usbdrv\usbdrv.c
                                                    *                                                                       C:\Cdc\system\usb\usbdrv\usbdrv.c
                                                    * Because of this logic, it is not necessary to save the USTAT value    C:\Cdc\system\usb\usbdrv\usbdrv.c
                                                    * of non-EP0 transactions.                                              C:\Cdc\system\usb\usbdrv\usbdrv.c
                                                    */                                                                      C:\Cdc\system\usb\usbdrv\usbdrv.c
001414   9668     BCF       0x68,0x3,0x0           UIRbits.TRNIF = 0;                                                       C:\Cdc\system\usb\usbdrv\usbdrv.c
                                               }//end if(UIRbits.TRNIF && UIEbits.TRNIE)                                    C:\Cdc\system\usb\usbdrv\usbdrv.c
                                                                                                                            C:\Cdc\system\usb\usbdrv\usbdrv.c
001416   0012     RETURN    0x0            }//end USBDriverService                                                          C:\Cdc\system\usb\usbdrv\usbdrv.c
                                                                                                                            C:\Cdc\system\usb\usbdrv\usbdrv.c
                                           /******************************************************************************  C:\Cdc\system\usb\usbdrv\usbdrv.c
                                            * Function:        void USBSuspend(void)                                        C:\Cdc\system\usb\usbdrv\usbdrv.c
                                            *                                                                               C:\Cdc\system\usb\usbdrv\usbdrv.c
                                            * PreCondition:    None                                                         C:\Cdc\system\usb\usbdrv\usbdrv.c
                                            *                                                                               C:\Cdc\system\usb\usbdrv\usbdrv.c
                                            * Input:           None                                                         C:\Cdc\system\usb\usbdrv\usbdrv.c
                                            *                                                                               C:\Cdc\system\usb\usbdrv\usbdrv.c
                                            * Output:          None                                                         C:\Cdc\system\usb\usbdrv\usbdrv.c
                                            *                                                                               C:\Cdc\system\usb\usbdrv\usbdrv.c
                                            * Side Effects:    None                                                         C:\Cdc\system\usb\usbdrv\usbdrv.c
                                            *                                                                               C:\Cdc\system\usb\usbdrv\usbdrv.c
                                            * Overview:                                                                     C:\Cdc\system\usb\usbdrv\usbdrv.c
                                            *                                                                               C:\Cdc\system\usb\usbdrv\usbdrv.c
                                            * Note:            None                                                         C:\Cdc\system\usb\usbdrv\usbdrv.c
                                            *****************************************************************************/  C:\Cdc\system\usb\usbdrv\usbdrv.c
                                           void USBSuspend(void)                                                            C:\Cdc\system\usb\usbdrv\usbdrv.c
                                           {                                                                                C:\Cdc\system\usb\usbdrv\usbdrv.c
                                               /*                                                                           C:\Cdc\system\usb\usbdrv\usbdrv.c
                                                * NOTE: Do not clear UIRbits.ACTVIF here!                                   C:\Cdc\system\usb\usbdrv\usbdrv.c
                                                * Reason:                                                                   C:\Cdc\system\usb\usbdrv\usbdrv.c
                                                * ACTVIF is only generated once an IDLEIF has been generated.               C:\Cdc\system\usb\usbdrv\usbdrv.c
                                                * This is a 1:1 ratio interrupt generation.                                 C:\Cdc\system\usb\usbdrv\usbdrv.c
                                                * For every IDLEIF, there will be only one ACTVIF regardless of             C:\Cdc\system\usb\usbdrv\usbdrv.c
                                                * the number of subsequent bus transitions.                                 C:\Cdc\system\usb\usbdrv\usbdrv.c
                                                *                                                                           C:\Cdc\system\usb\usbdrv\usbdrv.c
                                                * If the ACTIF is cleared here, a problem could occur when:                 C:\Cdc\system\usb\usbdrv\usbdrv.c
                                                * [       IDLE       ][bus activity ->                                      C:\Cdc\system\usb\usbdrv\usbdrv.c
                                                * <--- 3 ms ----->     ^                                                    C:\Cdc\system\usb\usbdrv\usbdrv.c
                                                *                ^     ACTVIF=1                                             C:\Cdc\system\usb\usbdrv\usbdrv.c
                                                *                IDLEIF=1                                                   C:\Cdc\system\usb\usbdrv\usbdrv.c
                                                *  #           #           #           #   (#=Program polling flags)        C:\Cdc\system\usb\usbdrv\usbdrv.c
                                                *                          ^                                                C:\Cdc\system\usb\usbdrv\usbdrv.c
                                                *                          This polling loop will see both                  C:\Cdc\system\usb\usbdrv\usbdrv.c
                                                *                          IDLEIF=1 and ACTVIF=1.                           C:\Cdc\system\usb\usbdrv\usbdrv.c
                                                *                          However, the program services IDLEIF first       C:\Cdc\system\usb\usbdrv\usbdrv.c
                                                *                          because ACTIVIE=0.                               C:\Cdc\system\usb\usbdrv\usbdrv.c
                                                *                          If this routine clears the only ACTIVIF,         C:\Cdc\system\usb\usbdrv\usbdrv.c
                                                *                          then it can never get out of the suspend         C:\Cdc\system\usb\usbdrv\usbdrv.c
                                                *                          mode.                                            C:\Cdc\system\usb\usbdrv\usbdrv.c
                                                */                                                                          C:\Cdc\system\usb\usbdrv\usbdrv.c
001418   8469     BSF       0x69,0x2,0x0       UIEbits.ACTVIE = 1;                     // Enable bus activity interrupt     C:\Cdc\system\usb\usbdrv\usbdrv.c
00141a   9868     BCF       0x68,0x4,0x0       UIRbits.IDLEIF = 0;                                                          C:\Cdc\system\usb\usbdrv\usbdrv.c
00141c   826d     BSF       0x6d,0x1,0x0       UCONbits.SUSPND = 1;                    // Put USB module in power conserve  C:\Cdc\system\usb\usbdrv\usbdrv.c
                                                                                       // mode, SIE clock inactive          C:\Cdc\system\usb\usbdrv\usbdrv.c
                                               /*                                                                           C:\Cdc\system\usb\usbdrv\usbdrv.c
                                                * At this point the PIC can go into sleep,idle, or                          C:\Cdc\system\usb\usbdrv\usbdrv.c
                                                * switch to a slower clock, etc.                                            C:\Cdc\system\usb\usbdrv\usbdrv.c
                                                */                                                                          C:\Cdc\system\usb\usbdrv\usbdrv.c
                                                                                                                            C:\Cdc\system\usb\usbdrv\usbdrv.c
                                               /* Modifiable Section */                                                     C:\Cdc\system\usb\usbdrv\usbdrv.c
00141e   9aa1     BCF       0xa1,0x5,0x0       PIR2bits.USBIF = 0;                                                          C:\Cdc\system\usb\usbdrv\usbdrv.c
001420   8aa0     BSF       0xa0,0x5,0x0       PIE2bits.USBIE = 1;                     // Set USB wakeup source             C:\Cdc\system\usb\usbdrv\usbdrv.c
001422   0003     SLEEP                        Sleep();                                // Goto sleep                        C:\Cdc\system\usb\usbdrv\usbdrv.c
001424   9aa0     BCF       0xa0,0x5,0x0       PIE2bits.USBIE = 0;                                                          C:\Cdc\system\usb\usbdrv\usbdrv.c
                                               /* End Modifiable Section */                                                 C:\Cdc\system\usb\usbdrv\usbdrv.c
                                                                                                                            C:\Cdc\system\usb\usbdrv\usbdrv.c
001426   0012     RETURN    0x0            }//end USBSuspend                                                                C:\Cdc\system\usb\usbdrv\usbdrv.c
                                                                                                                            C:\Cdc\system\usb\usbdrv\usbdrv.c
                                           /******************************************************************************  C:\Cdc\system\usb\usbdrv\usbdrv.c
                                            * Function:        void USBWakeFromSuspend(void)                                C:\Cdc\system\usb\usbdrv\usbdrv.c
                                            *                                                                               C:\Cdc\system\usb\usbdrv\usbdrv.c
                                            * PreCondition:    None                                                         C:\Cdc\system\usb\usbdrv\usbdrv.c
                                            *                                                                               C:\Cdc\system\usb\usbdrv\usbdrv.c
                                            * Input:           None                                                         C:\Cdc\system\usb\usbdrv\usbdrv.c
                                            *                                                                               C:\Cdc\system\usb\usbdrv\usbdrv.c
                                            * Output:          None                                                         C:\Cdc\system\usb\usbdrv\usbdrv.c
                                            *                                                                               C:\Cdc\system\usb\usbdrv\usbdrv.c
                                            * Side Effects:    None                                                         C:\Cdc\system\usb\usbdrv\usbdrv.c
                                            *                                                                               C:\Cdc\system\usb\usbdrv\usbdrv.c
                                            * Overview:                                                                     C:\Cdc\system\usb\usbdrv\usbdrv.c
                                            *                                                                               C:\Cdc\system\usb\usbdrv\usbdrv.c
                                            * Note:            None                                                         C:\Cdc\system\usb\usbdrv\usbdrv.c
                                            *****************************************************************************/  C:\Cdc\system\usb\usbdrv\usbdrv.c
                                           void USBWakeFromSuspend(void)                                                    C:\Cdc\system\usb\usbdrv\usbdrv.c
                                           {                                                                                C:\Cdc\system\usb\usbdrv\usbdrv.c
                                               /*                                                                           C:\Cdc\system\usb\usbdrv\usbdrv.c
                                                * If using clock switching, this is the place to restore the                C:\Cdc\system\usb\usbdrv\usbdrv.c
                                                * original clock frequency.                                                 C:\Cdc\system\usb\usbdrv\usbdrv.c
                                                */                                                                          C:\Cdc\system\usb\usbdrv\usbdrv.c
001428   926d     BCF       0x6d,0x1,0x0       UCONbits.SUSPND = 0;                                                         C:\Cdc\system\usb\usbdrv\usbdrv.c
00142a   9469     BCF       0x69,0x2,0x0       UIEbits.ACTVIE = 0;                                                          C:\Cdc\system\usb\usbdrv\usbdrv.c
00142c   9468     BCF       0x68,0x2,0x0       UIRbits.ACTVIF = 0;                                                          C:\Cdc\system\usb\usbdrv\usbdrv.c
00142e   0012     RETURN    0x0            }//end USBWakeFromSuspend                                                        C:\Cdc\system\usb\usbdrv\usbdrv.c
                                                                                                                            C:\Cdc\system\usb\usbdrv\usbdrv.c
                                           /******************************************************************************  C:\Cdc\system\usb\usbdrv\usbdrv.c
                                            * Function:        void USBRemoteWakeup(void)                                   C:\Cdc\system\usb\usbdrv\usbdrv.c
                                            *                                                                               C:\Cdc\system\usb\usbdrv\usbdrv.c
                                            * PreCondition:    None                                                         C:\Cdc\system\usb\usbdrv\usbdrv.c
                                            *                                                                               C:\Cdc\system\usb\usbdrv\usbdrv.c
                                            * Input:           None                                                         C:\Cdc\system\usb\usbdrv\usbdrv.c
                                            *                                                                               C:\Cdc\system\usb\usbdrv\usbdrv.c
                                            * Output:          None                                                         C:\Cdc\system\usb\usbdrv\usbdrv.c
                                            *                                                                               C:\Cdc\system\usb\usbdrv\usbdrv.c
                                            * Side Effects:    None                                                         C:\Cdc\system\usb\usbdrv\usbdrv.c
                                            *                                                                               C:\Cdc\system\usb\usbdrv\usbdrv.c
                                            * Overview:        This function should be called by user when the device       C:\Cdc\system\usb\usbdrv\usbdrv.c
                                            *                  is waken up by an external stimulus other than ACTIVIF.      C:\Cdc\system\usb\usbdrv\usbdrv.c
                                            *                  Please read the note below to understand the limitations.    C:\Cdc\system\usb\usbdrv\usbdrv.c
                                            *                                                                               C:\Cdc\system\usb\usbdrv\usbdrv.c
                                            * Note:            The modifiable section in this routine should be changed     C:\Cdc\system\usb\usbdrv\usbdrv.c
                                            *                  to meet the application needs. Current implementation        C:\Cdc\system\usb\usbdrv\usbdrv.c
                                            *                  temporary blocks other functions from executing for a        C:\Cdc\system\usb\usbdrv\usbdrv.c
                                            *                  period of 1-13 ms depending on the core frequency.           C:\Cdc\system\usb\usbdrv\usbdrv.c
                                            *                                                                               C:\Cdc\system\usb\usbdrv\usbdrv.c
                                            *                  According to USB 2.0 specification section 7.1.7.7,          C:\Cdc\system\usb\usbdrv\usbdrv.c
                                            *                  "The remote wakeup device must hold the resume signaling     C:\Cdc\system\usb\usbdrv\usbdrv.c
                                            *                  for at lest 1 ms but for no more than 15 ms."                C:\Cdc\system\usb\usbdrv\usbdrv.c
                                            *                  The idea here is to use a delay counter loop, using a        C:\Cdc\system\usb\usbdrv\usbdrv.c
                                            *                  common value that would work over a wide range of core       C:\Cdc\system\usb\usbdrv\usbdrv.c
                                            *                  frequencies.                                                 C:\Cdc\system\usb\usbdrv\usbdrv.c
                                            *                  That value selected is 1800. See table below:                C:\Cdc\system\usb\usbdrv\usbdrv.c
                                            *                  ==========================================================   C:\Cdc\system\usb\usbdrv\usbdrv.c
                                            *                  Core Freq(MHz)      MIP         RESUME Signal Period (ms)    C:\Cdc\system\usb\usbdrv\usbdrv.c
                                            *                  ==========================================================   C:\Cdc\system\usb\usbdrv\usbdrv.c
                                            *                      48              12          1.05                         C:\Cdc\system\usb\usbdrv\usbdrv.c
                                            *                       4              1           12.6                         C:\Cdc\system\usb\usbdrv\usbdrv.c
                                            *                  ==========================================================   C:\Cdc\system\usb\usbdrv\usbdrv.c
                                            *                  * These timing could be incorrect when using code            C:\Cdc\system\usb\usbdrv\usbdrv.c
                                            *                    optimization or extended instruction mode,                 C:\Cdc\system\usb\usbdrv\usbdrv.c
                                            *                    or when having other interrupts enabled.                   C:\Cdc\system\usb\usbdrv\usbdrv.c
                                            *                    Make sure to verify using the MPLAB SIM's Stopwatch        C:\Cdc\system\usb\usbdrv\usbdrv.c
                                            *****************************************************************************/  C:\Cdc\system\usb\usbdrv\usbdrv.c
                                           void USBRemoteWakeup(void)                                                       C:\Cdc\system\usb\usbdrv\usbdrv.c
                                           {                                                                                C:\Cdc\system\usb\usbdrv\usbdrv.c
                                               static word delay_count;                                                     C:\Cdc\system\usb\usbdrv\usbdrv.c
                                                                                                                            C:\Cdc\system\usb\usbdrv\usbdrv.c
001430   0100     MOVLB     0x0                if(usb_stat.RemoteWakeup == 1)          // Check if RemoteWakeup function    C:\Cdc\system\usb\usbdrv\usbdrv.c
001432   a1ae     BTFSS     0xae,0x0,0x1                                                                                    
001434   d00e     BRA       0x1452                                                                                          
                                               {                                       // has been enabled by the host.     C:\Cdc\system\usb\usbdrv\usbdrv.c
001436   dff8     RCALL     0x1428                 USBWakeFromSuspend();               // Unsuspend USB modue               C:\Cdc\system\usb\usbdrv\usbdrv.c
001438   846d     BSF       0x6d,0x2,0x0           UCONbits.RESUME = 1;                // Start RESUME signaling            C:\Cdc\system\usb\usbdrv\usbdrv.c
                                                                                                                            C:\Cdc\system\usb\usbdrv\usbdrv.c
                                                   /* Modifiable Section */                                                 C:\Cdc\system\usb\usbdrv\usbdrv.c
                                                                                                                            C:\Cdc\system\usb\usbdrv\usbdrv.c
00143a   0101     MOVLB     0x1                    delay_count = 1800U;                // Set RESUME line for 1-13 ms       C:\Cdc\system\usb\usbdrv\usbdrv.c
00143c   0e08     MOVLW     0x8                                                                                             
00143e   6ffe     MOVWF     0xfe,0x1                                                                                        
001440   0e07     MOVLW     0x7                                                                                             
001442   6fff     MOVWF     0xff,0x1                                                                                        
                                                   do                                                                       C:\Cdc\system\usb\usbdrv\usbdrv.c
                                                   {                                                                        C:\Cdc\system\usb\usbdrv\usbdrv.c
001444   07fe     DECF      0xfe,0x1,0x1               delay_count--;                                                       C:\Cdc\system\usb\usbdrv\usbdrv.c
001446   0e00     MOVLW     0x0                                                                                             
001448   5bff     SUBWFB    0xff,0x1,0x1                                                                                    
00144a   51fe     MOVF      0xfe,0x0,0x1           }while(delay_count);                                                     C:\Cdc\system\usb\usbdrv\usbdrv.c
00144c   11ff     IORWF     0xff,0x0,0x1                                                                                    
00144e   e1fa     BNZ       0x1444                                                                                          
                                                                                                                            C:\Cdc\system\usb\usbdrv\usbdrv.c
                                                   /* End Modifiable Section */                                             C:\Cdc\system\usb\usbdrv\usbdrv.c
                                                                                                                            C:\Cdc\system\usb\usbdrv\usbdrv.c
001450   946d     BCF       0x6d,0x2,0x0           UCONbits.RESUME = 0;                                                     C:\Cdc\system\usb\usbdrv\usbdrv.c
                                               }//endif                                                                     C:\Cdc\system\usb\usbdrv\usbdrv.c
001452   0012     RETURN    0x0            }//end USBRemoteWakeup                                                           C:\Cdc\system\usb\usbdrv\usbdrv.c
                                                                                                                            C:\Cdc\system\usb\usbdrv\usbdrv.c
                                           /******************************************************************************  C:\Cdc\system\usb\usbdrv\usbdrv.c
                                            * Function:        void USB_SOF_Handler(void)                                   C:\Cdc\system\usb\usbdrv\usbdrv.c
                                            *                                                                               C:\Cdc\system\usb\usbdrv\usbdrv.c
                                            * PreCondition:    None                                                         C:\Cdc\system\usb\usbdrv\usbdrv.c
                                            *                                                                               C:\Cdc\system\usb\usbdrv\usbdrv.c
                                            * Input:           None                                                         C:\Cdc\system\usb\usbdrv\usbdrv.c
                                            *                                                                               C:\Cdc\system\usb\usbdrv\usbdrv.c
                                            * Output:          None                                                         C:\Cdc\system\usb\usbdrv\usbdrv.c
                                            *                                                                               C:\Cdc\system\usb\usbdrv\usbdrv.c
                                            * Side Effects:    None                                                         C:\Cdc\system\usb\usbdrv\usbdrv.c
                                            *                                                                               C:\Cdc\system\usb\usbdrv\usbdrv.c
                                            * Overview:        The USB host sends out a SOF packet to full-speed devices    C:\Cdc\system\usb\usbdrv\usbdrv.c
                                            *                  every 1 ms. This interrupt may be useful for isochronous     C:\Cdc\system\usb\usbdrv\usbdrv.c
                                            *                  pipes. End designers should implement callback routine       C:\Cdc\system\usb\usbdrv\usbdrv.c
                                            *                  as necessary.                                                C:\Cdc\system\usb\usbdrv\usbdrv.c
                                            *                                                                               C:\Cdc\system\usb\usbdrv\usbdrv.c
                                            * Note:            None                                                         C:\Cdc\system\usb\usbdrv\usbdrv.c
                                            *****************************************************************************/  C:\Cdc\system\usb\usbdrv\usbdrv.c
                                           void USB_SOF_Handler(void)                                                       C:\Cdc\system\usb\usbdrv\usbdrv.c
                                           {                                                                                C:\Cdc\system\usb\usbdrv\usbdrv.c
                                               /* Callback routine here */                                                  C:\Cdc\system\usb\usbdrv\usbdrv.c
                                                                                                                            C:\Cdc\system\usb\usbdrv\usbdrv.c
001454   9c68     BCF       0x68,0x6,0x0       UIRbits.SOFIF = 0;                                                           C:\Cdc\system\usb\usbdrv\usbdrv.c
001456   0012     RETURN    0x0            }//end USB_SOF_Handler                                                           C:\Cdc\system\usb\usbdrv\usbdrv.c
                                                                                                                            C:\Cdc\system\usb\usbdrv\usbdrv.c
                                           /******************************************************************************  C:\Cdc\system\usb\usbdrv\usbdrv.c
                                            * Function:        void USBStallHandler(void)                                   C:\Cdc\system\usb\usbdrv\usbdrv.c
                                            *                                                                               C:\Cdc\system\usb\usbdrv\usbdrv.c
                                            * PreCondition:    A STALL packet is sent to the host by the SIE.               C:\Cdc\system\usb\usbdrv\usbdrv.c
                                            *                                                                               C:\Cdc\system\usb\usbdrv\usbdrv.c
                                            * Input:           None                                                         C:\Cdc\system\usb\usbdrv\usbdrv.c
                                            *                                                                               C:\Cdc\system\usb\usbdrv\usbdrv.c
                                            * Output:          None                                                         C:\Cdc\system\usb\usbdrv\usbdrv.c
                                            *                                                                               C:\Cdc\system\usb\usbdrv\usbdrv.c
                                            * Side Effects:    None                                                         C:\Cdc\system\usb\usbdrv\usbdrv.c
                                            *                                                                               C:\Cdc\system\usb\usbdrv\usbdrv.c
                                            * Overview:        The STALLIF is set anytime the SIE sends out a STALL         C:\Cdc\system\usb\usbdrv\usbdrv.c
                                            *                  packet regardless of which endpoint causes it.               C:\Cdc\system\usb\usbdrv\usbdrv.c
                                            *                  A Setup transaction overrides the STALL function. A stalled  C:\Cdc\system\usb\usbdrv\usbdrv.c
                                            *                  endpoint stops stalling once it receives a setup packet.     C:\Cdc\system\usb\usbdrv\usbdrv.c
                                            *                  In this case, the SIE will accepts the Setup packet and      C:\Cdc\system\usb\usbdrv\usbdrv.c
                                            *                  set the TRNIF flag to notify the firmware. STALL function    C:\Cdc\system\usb\usbdrv\usbdrv.c
                                            *                  for that particular endpoint pipe will be automatically      C:\Cdc\system\usb\usbdrv\usbdrv.c
                                            *                  disabled (direction specific).                               C:\Cdc\system\usb\usbdrv\usbdrv.c
                                            *                                                                               C:\Cdc\system\usb\usbdrv\usbdrv.c
                                            *                  There are a few reasons for an endpoint to be stalled.       C:\Cdc\system\usb\usbdrv\usbdrv.c
                                            *                  1. When a non-supported USB request is received.             C:\Cdc\system\usb\usbdrv\usbdrv.c
                                            *                     Example: GET_DESCRIPTOR(DEVICE_QUALIFIER)                 C:\Cdc\system\usb\usbdrv\usbdrv.c
                                            *                  2. When an endpoint is currently halted.                     C:\Cdc\system\usb\usbdrv\usbdrv.c
                                            *                  3. When the device class specifies that an endpoint must     C:\Cdc\system\usb\usbdrv\usbdrv.c
                                            *                     stall in response to a specific event.                    C:\Cdc\system\usb\usbdrv\usbdrv.c
                                            *                     Example: Mass Storage Device Class                        C:\Cdc\system\usb\usbdrv\usbdrv.c
                                            *                              If the CBW is not valid, the device shall        C:\Cdc\system\usb\usbdrv\usbdrv.c
                                            *                              STALL the Bulk-In pipe.                          C:\Cdc\system\usb\usbdrv\usbdrv.c
                                            *                              See USB Mass Storage Class Bulk-only Transport   C:\Cdc\system\usb\usbdrv\usbdrv.c
                                            *                              Specification for more details.                  C:\Cdc\system\usb\usbdrv\usbdrv.c
                                            *                                                                               C:\Cdc\system\usb\usbdrv\usbdrv.c
                                            * Note:            UEPn.EPSTALL can be scanned to see which endpoint causes     C:\Cdc\system\usb\usbdrv\usbdrv.c
                                            *                  the stall event.                                             C:\Cdc\system\usb\usbdrv\usbdrv.c
                                            *                  If                                                           C:\Cdc\system\usb\usbdrv\usbdrv.c
                                            *****************************************************************************/  C:\Cdc\system\usb\usbdrv\usbdrv.c
                                           void USBStallHandler(void)                                                       C:\Cdc\system\usb\usbdrv\usbdrv.c
                                           {                                                                                C:\Cdc\system\usb\usbdrv\usbdrv.c
                                               /*                                                                           C:\Cdc\system\usb\usbdrv\usbdrv.c
                                                * Does not really have to do anything here,                                 C:\Cdc\system\usb\usbdrv\usbdrv.c
                                                * even for the control endpoint.                                            C:\Cdc\system\usb\usbdrv\usbdrv.c
                                                * All BDs of Endpoint 0 are owned by SIE right now,                         C:\Cdc\system\usb\usbdrv\usbdrv.c
                                                * but once a Setup Transaction is received, the ownership                   C:\Cdc\system\usb\usbdrv\usbdrv.c
                                                * for EP0_OUT will be returned to CPU.                                      C:\Cdc\system\usb\usbdrv\usbdrv.c
                                                * When the Setup Transaction is serviced, the ownership                     C:\Cdc\system\usb\usbdrv\usbdrv.c
                                                * for EP0_IN will then be forced back to CPU by firmware.                   C:\Cdc\system\usb\usbdrv\usbdrv.c
                                                */                                                                          C:\Cdc\system\usb\usbdrv\usbdrv.c
001458   a070     BTFSS     0x70,0x0,0x0       if(UEP0bits.EPSTALL == 1)                                                    C:\Cdc\system\usb\usbdrv\usbdrv.c
00145a   d003     BRA       0x1462                                                                                          
                                               {                                                                            C:\Cdc\system\usb\usbdrv\usbdrv.c
00145c   eccc     CALL      0x1198,0x0             USBPrepareForNextSetupTrf();        // Firmware work-around              C:\Cdc\system\usb\usbdrv\usbdrv.c
00145e   f008                                                                                                               
001460   9070     BCF       0x70,0x0,0x0           UEP0bits.EPSTALL = 0;                                                    C:\Cdc\system\usb\usbdrv\usbdrv.c
                                               }                                                                            C:\Cdc\system\usb\usbdrv\usbdrv.c
001462   9a68     BCF       0x68,0x5,0x0       UIRbits.STALLIF = 0;                                                         C:\Cdc\system\usb\usbdrv\usbdrv.c
001464   0012     RETURN    0x0            }//end USBStallHandler                                                           C:\Cdc\system\usb\usbdrv\usbdrv.c
                                                                                                                            C:\Cdc\system\usb\usbdrv\usbdrv.c
                                           /******************************************************************************  C:\Cdc\system\usb\usbdrv\usbdrv.c
                                            * Function:        void USBErrorHandler(void)                                   C:\Cdc\system\usb\usbdrv\usbdrv.c
                                            *                                                                               C:\Cdc\system\usb\usbdrv\usbdrv.c
                                            * PreCondition:    None                                                         C:\Cdc\system\usb\usbdrv\usbdrv.c
                                            *                                                                               C:\Cdc\system\usb\usbdrv\usbdrv.c
                                            * Input:           None                                                         C:\Cdc\system\usb\usbdrv\usbdrv.c
                                            *                                                                               C:\Cdc\system\usb\usbdrv\usbdrv.c
                                            * Output:          None                                                         C:\Cdc\system\usb\usbdrv\usbdrv.c
                                            *                                                                               C:\Cdc\system\usb\usbdrv\usbdrv.c
                                            * Side Effects:    None                                                         C:\Cdc\system\usb\usbdrv\usbdrv.c
                                            *                                                                               C:\Cdc\system\usb\usbdrv\usbdrv.c
                                            * Overview:        The purpose of this interrupt is mainly for debugging        C:\Cdc\system\usb\usbdrv\usbdrv.c
                                            *                  during development. Check UEIR to see which error causes     C:\Cdc\system\usb\usbdrv\usbdrv.c
                                            *                  the interrupt.                                               C:\Cdc\system\usb\usbdrv\usbdrv.c
                                            *                                                                               C:\Cdc\system\usb\usbdrv\usbdrv.c
                                            * Note:            None                                                         C:\Cdc\system\usb\usbdrv\usbdrv.c
                                            *****************************************************************************/  C:\Cdc\system\usb\usbdrv\usbdrv.c
                                           void USBErrorHandler(void)                                                       C:\Cdc\system\usb\usbdrv\usbdrv.c
                                           {                                                                                C:\Cdc\system\usb\usbdrv\usbdrv.c
001466   9268     BCF       0x68,0x1,0x0       UIRbits.UERRIF = 0;                                                          C:\Cdc\system\usb\usbdrv\usbdrv.c
001468   0012     RETURN    0x0            }//end USBErrorHandler                                                           C:\Cdc\system\usb\usbdrv\usbdrv.c
                                                                                                                            C:\Cdc\system\usb\usbdrv\usbdrv.c
                                           /******************************************************************************  C:\Cdc\system\usb\usbdrv\usbdrv.c
                                            * Function:        void USBProtocolResetHandler(void)                           C:\Cdc\system\usb\usbdrv\usbdrv.c
                                            *                                                                               C:\Cdc\system\usb\usbdrv\usbdrv.c
                                            * PreCondition:    A USB bus reset is received from the host.                   C:\Cdc\system\usb\usbdrv\usbdrv.c
                                            *                                                                               C:\Cdc\system\usb\usbdrv\usbdrv.c
                                            * Input:           None                                                         C:\Cdc\system\usb\usbdrv\usbdrv.c
                                            *                                                                               C:\Cdc\system\usb\usbdrv\usbdrv.c
                                            * Output:          None                                                         C:\Cdc\system\usb\usbdrv\usbdrv.c
                                            *                                                                               C:\Cdc\system\usb\usbdrv\usbdrv.c
                                            * Side Effects:    Currently, this routine flushes any pending USB              C:\Cdc\system\usb\usbdrv\usbdrv.c
                                            *                  transactions. It empties out the USTAT FIFO. This action     C:\Cdc\system\usb\usbdrv\usbdrv.c
                                            *                  might not be desirable in some applications.                 C:\Cdc\system\usb\usbdrv\usbdrv.c
                                            *                                                                               C:\Cdc\system\usb\usbdrv\usbdrv.c
                                            * Overview:        Once a USB bus reset is received from the host, this         C:\Cdc\system\usb\usbdrv\usbdrv.c
                                            *                  routine should be called. It resets the device address to    C:\Cdc\system\usb\usbdrv\usbdrv.c
                                            *                  zero, disables all non-EP0 endpoints, initializes EP0 to     C:\Cdc\system\usb\usbdrv\usbdrv.c
                                            *                  be ready for default communication, clears all USB           C:\Cdc\system\usb\usbdrv\usbdrv.c
                                            *                  interrupt flags, unmasks applicable USB interrupts, and      C:\Cdc\system\usb\usbdrv\usbdrv.c
                                            *                  reinitializes internal state-machine variables.              C:\Cdc\system\usb\usbdrv\usbdrv.c
                                            *                                                                               C:\Cdc\system\usb\usbdrv\usbdrv.c
                                            * Note:            None                                                         C:\Cdc\system\usb\usbdrv\usbdrv.c
                                            *****************************************************************************/  C:\Cdc\system\usb\usbdrv\usbdrv.c
                                           void USBProtocolResetHandler(void)                                               C:\Cdc\system\usb\usbdrv\usbdrv.c
                                           {                                                                                C:\Cdc\system\usb\usbdrv\usbdrv.c
00146a   6a6a     CLRF      0x6a,0x0           UEIR = 0;                       // Clear all USB error flags                 C:\Cdc\system\usb\usbdrv\usbdrv.c
00146c   6a68     CLRF      0x68,0x0           UIR = 0;                        // Clears all USB interrupts                 C:\Cdc\system\usb\usbdrv\usbdrv.c
00146e   0e9f     MOVLW     0x9f               UEIE = 0b10011111;              // Unmask all USB error interrupts           C:\Cdc\system\usb\usbdrv\usbdrv.c
001470   6e6b     MOVWF     0x6b,0x0                                                                                        
001472   0e7b     MOVLW     0x7b               UIE = 0b01111011;               // Enable all interrupts except ACTVIE       C:\Cdc\system\usb\usbdrv\usbdrv.c
001474   6e69     MOVWF     0x69,0x0                                                                                        
                                                                                                                            C:\Cdc\system\usb\usbdrv\usbdrv.c
001476   6a6e     CLRF      0x6e,0x0           UADDR = 0x00;                   // Reset to default address                  C:\Cdc\system\usb\usbdrv\usbdrv.c
001478   0e0f     MOVLW     0xf                mDisableEP1to15();              // Reset all non-EP0 UEPn registers          C:\Cdc\system\usb\usbdrv\usbdrv.c
00147a   6ee6     MOVWF     0xe6,0x0                                                                                        
00147c   0e71     MOVLW     0x71                                                                                            
00147e   6ee6     MOVWF     0xe6,0x0                                                                                        
001480   0e0f     MOVLW     0xf                                                                                             
001482   6ee6     MOVWF     0xe6,0x0                                                                                        
001484   d814     RCALL     0x14ae                                                                                          
001486   52e5     MOVF      0xe5,0x1,0x0                                                                                    
001488   52e5     MOVF      0xe5,0x1,0x0                                                                                    
00148a   52e5     MOVF      0xe5,0x1,0x0                                                                                    
00148c   0e16     MOVLW     0x16               UEP0 = EP_CTRL|HSHK_EN;         // Init EP0 as a Ctrl EP, see usbdrv.h       C:\Cdc\system\usb\usbdrv\usbdrv.c
00148e   6e70     MOVWF     0x70,0x0                                                                                        
                                                                                                                            C:\Cdc\system\usb\usbdrv\usbdrv.c
001490   a668     BTFSS     0x68,0x3,0x0       while(UIRbits.TRNIF == 1)       // Flush any pending transactions            C:\Cdc\system\usb\usbdrv\usbdrv.c
001492   d002     BRA       0x1498                                                                                          
001496   d7fc     BRA       0x1490                                                                                          
001494   9668     BCF       0x68,0x3,0x0           UIRbits.TRNIF = 0;                                                       C:\Cdc\system\usb\usbdrv\usbdrv.c
                                                                                                                            C:\Cdc\system\usb\usbdrv\usbdrv.c
001498   986d     BCF       0x6d,0x4,0x0       UCONbits.PKTDIS = 0;            // Make sure packet processing is enabled    C:\Cdc\system\usb\usbdrv\usbdrv.c
00149a   eccc     CALL      0x1198,0x0         USBPrepareForNextSetupTrf();    // Declared in usbctrltrf.c                  C:\Cdc\system\usb\usbdrv\usbdrv.c
00149c   f008                                                                                                               
                                                                                                                            C:\Cdc\system\usb\usbdrv\usbdrv.c
00149e   0100     MOVLB     0x0                usb_stat.RemoteWakeup = 0;      // Default status flag to disable            C:\Cdc\system\usb\usbdrv\usbdrv.c
0014a0   91ae     BCF       0xae,0x0,0x1                                                                                    
0014a2   0100     MOVLB     0x0                usb_active_cfg = 0;             // Clear active configuration                C:\Cdc\system\usb\usbdrv\usbdrv.c
0014a4   6baf     CLRF      0xaf,0x1                                                                                        
0014a6   0100     MOVLB     0x0                usb_device_state = DEFAULT_STATE;                                            C:\Cdc\system\usb\usbdrv\usbdrv.c
0014a8   0e03     MOVLW     0x3                                                                                             
0014aa   6fad     MOVWF     0xad,0x1                                                                                        
0014ac   0012     RETURN    0x0            }//end USBProtocolResetHandler                                                   C:\Cdc\system\usb\usbdrv\usbdrv.c
                                                                                                                            C:\Cdc\system\usb\usbdrv\usbdrv.c
                                                                                                                            C:\Cdc\system\usb\usbdrv\usbdrv.c
                                           /* Auxiliary Function */                                                         C:\Cdc\system\usb\usbdrv\usbdrv.c
0014ae   cfd9     MOVFF     0xfd9,0xfe6    void ClearArray(byte* startAdr,byte count)                                       C:\Cdc\system\usb\usbdrv\usbdrv.c
0014b0   ffe6                                                                                                               
0014b2   cfe1     MOVFF     0xfe1,0xfd9                                                                                     
0014b4   ffd9                                                                                                               
                                           {                                                                                C:\Cdc\system\usb\usbdrv\usbdrv.c
0014b6   0efd     MOVLW     0xfd               *startAdr;                                                                   C:\Cdc\system\usb\usbdrv\usbdrv.c
0014b8   cfdb     MOVFF     0xfdb,0xfe9                                                                                     
0014ba   ffe9                                                                                                               
0014bc   0efe     MOVLW     0xfe                                                                                            
0014be   cfdb     MOVFF     0xfdb,0xfea                                                                                     
0014c0   ffea                                                                                                               
0014c2   0efc     MOVLW     0xfc               while(count)                                                                 C:\Cdc\system\usb\usbdrv\usbdrv.c
0014c4   50db     MOVF      0xdb,0x0,0x0                                                                                    
0014c6   e004     BZ        0x14d0                                                                                          
0014ce   d7f9     BRA       0x14c2                                                                                          
                                               {                                                                            C:\Cdc\system\usb\usbdrv\usbdrv.c
                                                   _asm                                                                     C:\Cdc\system\usb\usbdrv\usbdrv.c
0014c8   6aee     CLRF      0xee,0x0               clrf POSTINC0,0                                                          C:\Cdc\system\usb\usbdrv\usbdrv.c
                                                   _endasm                                                                  C:\Cdc\system\usb\usbdrv\usbdrv.c
0014ca   0efc     MOVLW     0xfc                   count--;                                                                 C:\Cdc\system\usb\usbdrv\usbdrv.c
0014cc   06db     DECF      0xdb,0x1,0x0                                                                                    
                                               }//end while                                                                 C:\Cdc\system\usb\usbdrv\usbdrv.c
0014d0   52e5     MOVF      0xe5,0x1,0x0   }//end ClearArray                                                                C:\Cdc\system\usb\usbdrv\usbdrv.c
0014d2   cfe7     MOVFF     0xfe7,0xfd9                                                                                     
0014d4   ffd9                                                                                                               
0014d6   0012     RETURN    0x0                                                                                             
                                                                                                                            C:\Cdc\system\usb\usbdrv\usbdrv.c
                                           /** EOF usbdrv.c *************************************************************/  C:\Cdc\system\usb\usbdrv\usbdrv.c
                                           /*********************************************************************           C:\Cdc\system\usb\usb9\usb9.c
                                            *                                                                               C:\Cdc\system\usb\usb9\usb9.c
                                            *                Microchip USB C18 Firmware Version 1.0                         C:\Cdc\system\usb\usb9\usb9.c
                                            *                                                                               C:\Cdc\system\usb\usb9\usb9.c
                                            *********************************************************************           C:\Cdc\system\usb\usb9\usb9.c
                                            * FileName:        usb9.c                                                       C:\Cdc\system\usb\usb9\usb9.c
                                            * Dependencies:    See INCLUDES section below                                   C:\Cdc\system\usb\usb9\usb9.c
                                            * Processor:       PIC18                                                        C:\Cdc\system\usb\usb9\usb9.c
                                            * Compiler:        C18 2.30.01+                                                 C:\Cdc\system\usb\usb9\usb9.c
                                            * Company:         Microchip Technology, Inc.                                   C:\Cdc\system\usb\usb9\usb9.c
                                            *                                                                               C:\Cdc\system\usb\usb9\usb9.c
                                            * Software License Agreement                                                    C:\Cdc\system\usb\usb9\usb9.c
                                            *                                                                               C:\Cdc\system\usb\usb9\usb9.c
                                            * The software supplied herewith by Microchip Technology Incorporated           C:\Cdc\system\usb\usb9\usb9.c
                                            * (the “Company”) for its PICmicro® Microcontroller is intended and             C:\Cdc\system\usb\usb9\usb9.c
                                            * supplied to you, the Company’s customer, for use solely and                   C:\Cdc\system\usb\usb9\usb9.c
                                            * exclusively on Microchip PICmicro Microcontroller products. The               C:\Cdc\system\usb\usb9\usb9.c
                                            * software is owned by the Company and/or its supplier, and is                  C:\Cdc\system\usb\usb9\usb9.c
                                            * protected under applicable copyright laws. All rights are reserved.           C:\Cdc\system\usb\usb9\usb9.c
                                            * Any use in violation of the foregoing restrictions may subject the            C:\Cdc\system\usb\usb9\usb9.c
                                            * user to criminal sanctions under applicable laws, as well as to               C:\Cdc\system\usb\usb9\usb9.c
                                            * civil liability for the breach of the terms and conditions of this            C:\Cdc\system\usb\usb9\usb9.c
                                            * license.                                                                      C:\Cdc\system\usb\usb9\usb9.c
                                            *                                                                               C:\Cdc\system\usb\usb9\usb9.c
                                            * THIS SOFTWARE IS PROVIDED IN AN “AS IS” CONDITION. NO WARRANTIES,             C:\Cdc\system\usb\usb9\usb9.c
                                            * WHETHER EXPRESS, IMPLIED OR STATUTORY, INCLUDING, BUT NOT LIMITED             C:\Cdc\system\usb\usb9\usb9.c
                                            * TO, IMPLIED WARRANTIES OF MERCHANTABILITY AND FITNESS FOR A                   C:\Cdc\system\usb\usb9\usb9.c
                                            * PARTICULAR PURPOSE APPLY TO THIS SOFTWARE. THE COMPANY SHALL NOT,             C:\Cdc\system\usb\usb9\usb9.c
                                            * IN ANY CIRCUMSTANCES, BE LIABLE FOR SPECIAL, INCIDENTAL OR                    C:\Cdc\system\usb\usb9\usb9.c
                                            * CONSEQUENTIAL DAMAGES, FOR ANY REASON WHATSOEVER.                             C:\Cdc\system\usb\usb9\usb9.c
                                            *                                                                               C:\Cdc\system\usb\usb9\usb9.c
                                            * Author               Date        Comment                                      C:\Cdc\system\usb\usb9\usb9.c
                                            *~~~~~~~~~~~~~~~~~~~~~~~~~~~~~~~~~~~~~~~~~~~~~~~~~~~~~~~~~~~~~~~~~~~~           C:\Cdc\system\usb\usb9\usb9.c
                                            * Rawin Rojvanit       11/19/04    Original.                                    C:\Cdc\system\usb\usb9\usb9.c
                                            ********************************************************************/           C:\Cdc\system\usb\usb9\usb9.c
                                                                                                                            C:\Cdc\system\usb\usb9\usb9.c
                                           /** I N C L U D E S **********************************************************/  C:\Cdc\system\usb\usb9\usb9.c
                                           #include <p18cxxx.h>                                                             C:\Cdc\system\usb\usb9\usb9.c
                                           #include "system\typedefs.h"                                                     C:\Cdc\system\usb\usb9\usb9.c
                                           #include "system\usb\usb.h"                                                      C:\Cdc\system\usb\usb9\usb9.c
                                           #include "io_cfg.h"                     // Required for self_power status        C:\Cdc\system\usb\usb9\usb9.c
                                                                                                                            C:\Cdc\system\usb\usb9\usb9.c
                                           /** V A R I A B L E S ********************************************************/  C:\Cdc\system\usb\usb9\usb9.c
                                           #pragma udata                                                                    C:\Cdc\system\usb\usb9\usb9.c
                                                                                                                            C:\Cdc\system\usb\usb9\usb9.c
                                           /** P R I V A T E  P R O T O T Y P E S ***************************************/  C:\Cdc\system\usb\usb9\usb9.c
                                           void USBStdGetDscHandler(void);                                                  C:\Cdc\system\usb\usb9\usb9.c
                                           void USBStdSetCfgHandler(void);                                                  C:\Cdc\system\usb\usb9\usb9.c
                                           void USBStdGetStatusHandler(void);                                               C:\Cdc\system\usb\usb9\usb9.c
                                           void USBStdFeatureReqHandler(void);                                              C:\Cdc\system\usb\usb9\usb9.c
                                                                                                                            C:\Cdc\system\usb\usb9\usb9.c
                                           /** D E C L A R A T I O N S **************************************************/  C:\Cdc\system\usb\usb9\usb9.c
                                           #pragma code                                                                     C:\Cdc\system\usb\usb9\usb9.c
                                           /******************************************************************************  C:\Cdc\system\usb\usb9\usb9.c
                                            * Function:        void USBCheckStdRequest(void)                                C:\Cdc\system\usb\usb9\usb9.c
                                            *                                                                               C:\Cdc\system\usb\usb9\usb9.c
                                            * PreCondition:    None                                                         C:\Cdc\system\usb\usb9\usb9.c
                                            *                                                                               C:\Cdc\system\usb\usb9\usb9.c
                                            * Input:           None                                                         C:\Cdc\system\usb\usb9\usb9.c
                                            *                                                                               C:\Cdc\system\usb\usb9\usb9.c
                                            * Output:          None                                                         C:\Cdc\system\usb\usb9\usb9.c
                                            *                                                                               C:\Cdc\system\usb\usb9\usb9.c
                                            * Side Effects:    None                                                         C:\Cdc\system\usb\usb9\usb9.c
                                            *                                                                               C:\Cdc\system\usb\usb9\usb9.c
                                            * Overview:        This routine checks the setup data packet to see if it       C:\Cdc\system\usb\usb9\usb9.c
                                            *                  knows how to handle it                                       C:\Cdc\system\usb\usb9\usb9.c
                                            *                                                                               C:\Cdc\system\usb\usb9\usb9.c
                                            * Note:            None                                                         C:\Cdc\system\usb\usb9\usb9.c
                                            *****************************************************************************/  C:\Cdc\system\usb\usb9\usb9.c
                                           void USBCheckStdRequest(void)                                                    C:\Cdc\system\usb\usb9\usb9.c
                                           {                                                                                C:\Cdc\system\usb\usb9\usb9.c
000bb2   0104     MOVLB     0x4                if(SetupPkt.RequestType != STANDARD) return;                                 C:\Cdc\system\usb\usb9\usb9.c
000bb4   5120     MOVF      0x20,0x0,0x1                                                                                    
000bb6   0b60     ANDLW     0x60                                                                                            
000bb8   42e8     RRNCF     0xe8,0x1,0x0                                                                                    
000bba   42e8     RRNCF     0xe8,0x1,0x0                                                                                    
000bbc   42e8     RRNCF     0xe8,0x1,0x0                                                                                    
000bbe   42e8     RRNCF     0xe8,0x1,0x0                                                                                    
000bc0   42e8     RRNCF     0xe8,0x1,0x0                                                                                    
000bc2   0900     IORLW     0x0                                                                                             
000bc4   e001     BZ        0xbc8                                                                                           
000bc6   d055     BRA       0xc72                                                                                           
                                                                                                                            C:\Cdc\system\usb\usb9\usb9.c
000bc8   5121     MOVF      0x21,0x0,0x1       switch(SetupPkt.bRequest)                                                    C:\Cdc\system\usb\usb9\usb9.c
000bca   0a07     XORLW     0x7                                                                                             
000bcc   e051     BZ        0xc70                                                                                           
000bce   0a0b     XORLW     0xb                                                                                             
000bd0   e04f     BZ        0xc70                                                                                           
000bd2   0a07     XORLW     0x7                                                                                             
000bd4   e040     BZ        0xc56                                                                                           
000bd6   0a01     XORLW     0x1                                                                                             
000bd8   e02c     BZ        0xc32                                                                                           
000bda   0a0b     XORLW     0xb                                                                                             
000bdc   e028     BZ        0xc2e                                                                                           
000bde   0a02     XORLW     0x2                                                                                             
000be0   e026     BZ        0xc2e                                                                                           
000be2   0a03     XORLW     0x3                                                                                             
000be4   e022     BZ        0xc2a                                                                                           
000be6   0a08     XORLW     0x8                                                                                             
000be8   e012     BZ        0xc0e                                                                                           
000bea   0a01     XORLW     0x1                                                                                             
000bec   e00e     BZ        0xc0a                                                                                           
000bee   0a0f     XORLW     0xf                                                                                             
000bf0   e00a     BZ        0xc06                                                                                           
000bf2   0a03     XORLW     0x3                                                                                             
000bf4   e001     BZ        0xbf8                                                                                           
000bf6   d03c     BRA       0xc70                                                                                           
                                               {                                                                            C:\Cdc\system\usb\usb9\usb9.c
                                                   case SET_ADR:                                                            C:\Cdc\system\usb\usb9\usb9.c
000bf8   0100     MOVLB     0x0                        ctrl_trf_session_owner = MUID_USB9;                                  C:\Cdc\system\usb\usb9\usb9.c
000bfa   0e01     MOVLW     0x1                                                                                             
000bfc   6fa6     MOVWF     0xa6,0x1                                                                                        
000bfe   0100     MOVLB     0x0                        usb_device_state = ADR_PENDING_STATE;       // Update state only     C:\Cdc\system\usb\usb9\usb9.c
000c00   0e04     MOVLW     0x4                                                                                             
000c02   6fad     MOVWF     0xad,0x1                                                                                        
                                                       /* See USBCtrlTrfInHandler() in usbctrltrf.c for the next step */    C:\Cdc\system\usb\usb9\usb9.c
000c04   d036     BRA       0xc72                      break;                                                               C:\Cdc\system\usb\usb9\usb9.c
                                                   case GET_DSC:                                                            C:\Cdc\system\usb\usb9\usb9.c
000c06   d836     RCALL     0xc74                      USBStdGetDscHandler();                                               C:\Cdc\system\usb\usb9\usb9.c
000c08   d034     BRA       0xc72                      break;                                                               C:\Cdc\system\usb\usb9\usb9.c
                                                   case SET_CFG:                                                            C:\Cdc\system\usb\usb9\usb9.c
000c0a   d890     RCALL     0xd2c                      USBStdSetCfgHandler();                                               C:\Cdc\system\usb\usb9\usb9.c
000c0c   d032     BRA       0xc72                      break;                                                               C:\Cdc\system\usb\usb9\usb9.c
                                                   case GET_CFG:                                                            C:\Cdc\system\usb\usb9\usb9.c
000c0e   0100     MOVLB     0x0                        ctrl_trf_session_owner = MUID_USB9;                                  C:\Cdc\system\usb\usb9\usb9.c
000c10   0e01     MOVLW     0x1                                                                                             
000c12   6fa6     MOVWF     0xa6,0x1                                                                                        
000c14   0100     MOVLB     0x0                        pSrc.bRam = (byte*)&usb_active_cfg;         // Set Source            C:\Cdc\system\usb\usb9\usb9.c
000c16   0eaf     MOVLW     0xaf                                                                                            
000c18   6fa7     MOVWF     0xa7,0x1                                                                                        
000c1a   0e00     MOVLW     0x0                                                                                             
000c1c   6fa8     MOVWF     0xa8,0x1                                                                                        
000c1e   0100     MOVLB     0x0                        usb_stat.ctrl_trf_mem = _RAM;               // Set memory type       C:\Cdc\system\usb\usb9\usb9.c
000c20   93ae     BCF       0xae,0x1,0x1                                                                                    
000c22   0100     MOVLB     0x0                        LSB(wCount) = 1;                            // Set data count        C:\Cdc\system\usb\usb9\usb9.c
000c24   0e01     MOVLW     0x1                                                                                             
000c26   6fab     MOVWF     0xab,0x1                                                                                        
000c28   d024     BRA       0xc72                      break;                                                               C:\Cdc\system\usb\usb9\usb9.c
                                                   case GET_STATUS:                                                         C:\Cdc\system\usb\usb9\usb9.c
000c2a   d8a8     RCALL     0xd7c                      USBStdGetStatusHandler();                                            C:\Cdc\system\usb\usb9\usb9.c
000c2c   d022     BRA       0xc72                      break;                                                               C:\Cdc\system\usb\usb9\usb9.c
                                                   case CLR_FEATURE:                                                        C:\Cdc\system\usb\usb9\usb9.c
                                                   case SET_FEATURE:                                                        C:\Cdc\system\usb\usb9\usb9.c
000c2e   d8f4     RCALL     0xe18                      USBStdFeatureReqHandler();                                           C:\Cdc\system\usb\usb9\usb9.c
000c30   d020     BRA       0xc72                      break;                                                               C:\Cdc\system\usb\usb9\usb9.c
                                                   case GET_INTF:                                                           C:\Cdc\system\usb\usb9\usb9.c
000c32   0100     MOVLB     0x0                        ctrl_trf_session_owner = MUID_USB9;                                  C:\Cdc\system\usb\usb9\usb9.c
000c34   0e01     MOVLW     0x1                                                                                             
000c36   6fa6     MOVWF     0xa6,0x1                                                                                        
000c38   0104     MOVLB     0x4                        pSrc.bRam = (byte*)&usb_alt_intf+SetupPkt.bIntfID;  // Set source    C:\Cdc\system\usb\usb9\usb9.c
000c3a   5124     MOVF      0x24,0x0,0x1                                                                                    
000c3c   0100     MOVLB     0x0                                                                                             
000c3e   6fa7     MOVWF     0xa7,0x1                                                                                        
000c40   6ba8     CLRF      0xa8,0x1                                                                                        
000c42   0eb0     MOVLW     0xb0                                                                                            
000c44   27a7     ADDWF     0xa7,0x1,0x1                                                                                    
000c46   0e00     MOVLW     0x0                                                                                             
000c48   23a8     ADDWFC    0xa8,0x1,0x1                                                                                    
000c4a   0100     MOVLB     0x0                        usb_stat.ctrl_trf_mem = _RAM;               // Set memory type       C:\Cdc\system\usb\usb9\usb9.c
000c4c   93ae     BCF       0xae,0x1,0x1                                                                                    
000c4e   0100     MOVLB     0x0                        LSB(wCount) = 1;                            // Set data count        C:\Cdc\system\usb\usb9\usb9.c
000c50   0e01     MOVLW     0x1                                                                                             
000c52   6fab     MOVWF     0xab,0x1                                                                                        
000c54   d00e     BRA       0xc72                      break;                                                               C:\Cdc\system\usb\usb9\usb9.c
                                                   case SET_INTF:                                                           C:\Cdc\system\usb\usb9\usb9.c
000c56   0100     MOVLB     0x0                        ctrl_trf_session_owner = MUID_USB9;                                  C:\Cdc\system\usb\usb9\usb9.c
000c58   0e01     MOVLW     0x1                                                                                             
000c5a   6fa6     MOVWF     0xa6,0x1                                                                                        
000c5c   0104     MOVLB     0x4                        usb_alt_intf[SetupPkt.bIntfID] = SetupPkt.bAltID;                    C:\Cdc\system\usb\usb9\usb9.c
000c5e   5124     MOVF      0x24,0x0,0x1                                                                                    
000c60   6aea     CLRF      0xea,0x0                                                                                        
000c62   0fb0     ADDLW     0xb0                                                                                            
000c64   6ee9     MOVWF     0xe9,0x0                                                                                        
000c66   0e00     MOVLW     0x0                                                                                             
000c68   22ea     ADDWFC    0xea,0x1,0x0                                                                                    
000c6a   c422     MOVFF     0x422,0xfef                                                                                     
000c6c   ffef                                                                                                               
000c6e   d001     BRA       0xc72                      break;                                                               C:\Cdc\system\usb\usb9\usb9.c
                                                   case SET_DSC:                                                            C:\Cdc\system\usb\usb9\usb9.c
                                                   case SYNCH_FRAME:                                                        C:\Cdc\system\usb\usb9\usb9.c
                                                   default:                                                                 C:\Cdc\system\usb\usb9\usb9.c
000c70   d000     BRA       0xc72                      break;                                                               C:\Cdc\system\usb\usb9\usb9.c
                                               }//end switch                                                                C:\Cdc\system\usb\usb9\usb9.c
                                                                                                                            C:\Cdc\system\usb\usb9\usb9.c
000c72   0012     RETURN    0x0            }//end USBCheckStdRequest                                                        C:\Cdc\system\usb\usb9\usb9.c
                                                                                                                            C:\Cdc\system\usb\usb9\usb9.c
                                           /******************************************************************************  C:\Cdc\system\usb\usb9\usb9.c
                                            * Function:        void USBStdGetDscHandler(void)                               C:\Cdc\system\usb\usb9\usb9.c
                                            *                                                                               C:\Cdc\system\usb\usb9\usb9.c
                                            * PreCondition:    None                                                         C:\Cdc\system\usb\usb9\usb9.c
                                            *                                                                               C:\Cdc\system\usb\usb9\usb9.c
                                            * Input:           None                                                         C:\Cdc\system\usb\usb9\usb9.c
                                            *                                                                               C:\Cdc\system\usb\usb9\usb9.c
                                            * Output:          None                                                         C:\Cdc\system\usb\usb9\usb9.c
                                            *                                                                               C:\Cdc\system\usb\usb9\usb9.c
                                            * Side Effects:    None                                                         C:\Cdc\system\usb\usb9\usb9.c
                                            *                                                                               C:\Cdc\system\usb\usb9\usb9.c
                                            * Overview:        This routine handles the standard GET_DESCRIPTOR request.    C:\Cdc\system\usb\usb9\usb9.c
                                            *                  It utilizes tables dynamically looks up descriptor size.     C:\Cdc\system\usb\usb9\usb9.c
                                            *                  This routine should never have to be modified if the tables  C:\Cdc\system\usb\usb9\usb9.c
                                            *                  in usbdsc.c are declared correctly.                          C:\Cdc\system\usb\usb9\usb9.c
                                            *                                                                               C:\Cdc\system\usb\usb9\usb9.c
                                            * Note:            None                                                         C:\Cdc\system\usb\usb9\usb9.c
                                            *****************************************************************************/  C:\Cdc\system\usb\usb9\usb9.c
                                           void USBStdGetDscHandler(void)                                                   C:\Cdc\system\usb\usb9\usb9.c
                                           {                                                                                C:\Cdc\system\usb\usb9\usb9.c
000c74   0e80     MOVLW     0x80               if(SetupPkt.bmRequestType == 0x80)                                           C:\Cdc\system\usb\usb9\usb9.c
000c76   0104     MOVLB     0x4                                                                                             
000c78   5d20     SUBWF     0x20,0x0,0x1                                                                                    
000c7a   e157     BNZ       0xd2a                                                                                           
                                               {                                                                            C:\Cdc\system\usb\usb9\usb9.c
000c7c   5123     MOVF      0x23,0x0,0x1           switch(SetupPkt.bDscType)                                                C:\Cdc\system\usb\usb9\usb9.c
000c7e   0a03     XORLW     0x3                                                                                             
000c80   e034     BZ        0xcea                                                                                           
000c82   0a01     XORLW     0x1                                                                                             
000c84   e010     BZ        0xca6                                                                                           
000c86   0a03     XORLW     0x3                                                                                             
000c88   e001     BZ        0xc8c                                                                                           
000c8a   d04d     BRA       0xd26                                                                                           
                                                   {                                                                        C:\Cdc\system\usb\usb9\usb9.c
                                                       case DSC_DEV:                                                        C:\Cdc\system\usb\usb9\usb9.c
000c8c   0100     MOVLB     0x0                            ctrl_trf_session_owner = MUID_USB9;                              C:\Cdc\system\usb\usb9\usb9.c
000c8e   0e01     MOVLW     0x1                                                                                             
000c90   6fa6     MOVWF     0xa6,0x1                                                                                        
000c92   0100     MOVLB     0x0                            pSrc.bRom = (rom byte*)&device_dsc;                              C:\Cdc\system\usb\usb9\usb9.c
000c94   0ed8     MOVLW     0xd8                                                                                            
000c96   6fa7     MOVWF     0xa7,0x1                                                                                        
000c98   0e14     MOVLW     0x14                                                                                            
000c9a   6fa8     MOVWF     0xa8,0x1                                                                                        
000c9c   0e12     MOVLW     0x12                           wCount._word = sizeof(device_dsc);          // Set data count    C:\Cdc\system\usb\usb9\usb9.c
000c9e   0100     MOVLB     0x0                                                                                             
000ca0   6fab     MOVWF     0xab,0x1                                                                                        
000ca2   6bac     CLRF      0xac,0x1                                                                                        
000ca4   d040     BRA       0xd26                          break;                                                           C:\Cdc\system\usb\usb9\usb9.c
                                                       case DSC_CFG:                                                        C:\Cdc\system\usb\usb9\usb9.c
000ca6   0100     MOVLB     0x0                            ctrl_trf_session_owner = MUID_USB9;                              C:\Cdc\system\usb\usb9\usb9.c
000ca8   0e01     MOVLW     0x1                                                                                             
000caa   6fa6     MOVWF     0xa6,0x1                                                                                        
000cac   0104     MOVLB     0x4                            pSrc.bRom = *(USB_CD_Ptr+SetupPkt.bDscIndex);                    C:\Cdc\system\usb\usb9\usb9.c
000cae   5122     MOVF      0x22,0x0,0x1                                                                                    
000cb0   6ef6     MOVWF     0xf6,0x0                                                                                        
000cb2   6af7     CLRF      0xf7,0x0                                                                                        
000cb4   90d8     BCF       0xd8,0x0,0x0                                                                                    
000cb6   36f6     RLCF      0xf6,0x1,0x0                                                                                    
000cb8   36f7     RLCF      0xf7,0x1,0x0                                                                                    
000cba   0e99     MOVLW     0x99                                                                                            
000cbc   26f6     ADDWF     0xf6,0x1,0x0                                                                                    
000cbe   0e15     MOVLW     0x15                                                                                            
000cc0   22f7     ADDWFC    0xf7,0x1,0x0                                                                                    
000cc2   0009     TBLRDPOSTINC                                                                                              
000cc4   cff5     MOVFF     0xff5,0xa7                                                                                      
000cc6   f0a7                                                                                                               
000cc8   000a     TBLRDPOSTDEC                                                                                              
000cca   cff5     MOVFF     0xff5,0xa8                                                                                      
000ccc   f0a8                                                                                                               
000cce   0e02     MOVLW     0x2                            wCount._word = *(pSrc.wRom+1);              // Set data count    C:\Cdc\system\usb\usb9\usb9.c
000cd0   0100     MOVLB     0x0                                                                                             
000cd2   6af7     CLRF      0xf7,0x0                                                                                        
000cd4   25a7     ADDWF     0xa7,0x0,0x1                                                                                    
000cd6   6ef6     MOVWF     0xf6,0x0                                                                                        
000cd8   51a8     MOVF      0xa8,0x0,0x1                                                                                    
000cda   22f7     ADDWFC    0xf7,0x1,0x0                                                                                    
000cdc   0009     TBLRDPOSTINC                                                                                              
000cde   cff5     MOVFF     0xff5,0xab                                                                                      
000ce0   f0ab                                                                                                               
000ce2   000a     TBLRDPOSTDEC                                                                                              
000ce4   cff5     MOVFF     0xff5,0xac                                                                                      
000ce6   f0ac                                                                                                               
000ce8   d01e     BRA       0xd26                          break;                                                           C:\Cdc\system\usb\usb9\usb9.c
                                                       case DSC_STR:                                                        C:\Cdc\system\usb\usb9\usb9.c
000cea   0100     MOVLB     0x0                            ctrl_trf_session_owner = MUID_USB9;                              C:\Cdc\system\usb\usb9\usb9.c
000cec   0e01     MOVLW     0x1                                                                                             
000cee   6fa6     MOVWF     0xa6,0x1                                                                                        
000cf0   0104     MOVLB     0x4                            pSrc.bRom = *(USB_SD_Ptr+SetupPkt.bDscIndex);                    C:\Cdc\system\usb\usb9\usb9.c
000cf2   5122     MOVF      0x22,0x0,0x1                                                                                    
000cf4   6ef6     MOVWF     0xf6,0x0                                                                                        
000cf6   6af7     CLRF      0xf7,0x0                                                                                        
000cf8   90d8     BCF       0xd8,0x0,0x0                                                                                    
000cfa   36f6     RLCF      0xf6,0x1,0x0                                                                                    
000cfc   36f7     RLCF      0xf7,0x1,0x0                                                                                    
000cfe   0e9d     MOVLW     0x9d                                                                                            
000d00   26f6     ADDWF     0xf6,0x1,0x0                                                                                    
000d02   0e15     MOVLW     0x15                                                                                            
000d04   22f7     ADDWFC    0xf7,0x1,0x0                                                                                    
000d06   0009     TBLRDPOSTINC                                                                                              
000d08   cff5     MOVFF     0xff5,0xa7                                                                                      
000d0a   f0a7                                                                                                               
000d0c   000a     TBLRDPOSTDEC                                                                                              
000d0e   cff5     MOVFF     0xff5,0xa8                                                                                      
000d10   f0a8                                                                                                               
000d12   c0a7     MOVFF     0xa7,0xff6                     wCount._word = *pSrc.bRom;                  // Set data count    C:\Cdc\system\usb\usb9\usb9.c
000d14   fff6                                                                                                               
000d16   c0a8     MOVFF     0xa8,0xff7                                                                                      
000d18   fff7                                                                                                               
000d1a   0008     TBLRD                                                                                                     
000d1c   50f5     MOVF      0xf5,0x0,0x0                                                                                    
000d1e   0100     MOVLB     0x0                                                                                             
000d20   6fab     MOVWF     0xab,0x1                                                                                        
000d22   6bac     CLRF      0xac,0x1                                                                                        
000d24   d000     BRA       0xd26                          break;                                                           C:\Cdc\system\usb\usb9\usb9.c
                                                   }//end switch                                                            C:\Cdc\system\usb\usb9\usb9.c
                                                                                                                            C:\Cdc\system\usb\usb9\usb9.c
000d26   0100     MOVLB     0x0                    usb_stat.ctrl_trf_mem = _ROM;                       // Set memory type   C:\Cdc\system\usb\usb9\usb9.c
000d28   83ae     BSF       0xae,0x1,0x1                                                                                    
                                               }//end if                                                                    C:\Cdc\system\usb\usb9\usb9.c
000d2a   0012     RETURN    0x0            }//end USBStdGetDscHandler                                                       C:\Cdc\system\usb\usb9\usb9.c
                                                                                                                            C:\Cdc\system\usb\usb9\usb9.c
                                           /******************************************************************************  C:\Cdc\system\usb\usb9\usb9.c
                                            * Function:        void USBStdSetCfgHandler(void)                               C:\Cdc\system\usb\usb9\usb9.c
                                            *                                                                               C:\Cdc\system\usb\usb9\usb9.c
                                            * PreCondition:    None                                                         C:\Cdc\system\usb\usb9\usb9.c
                                            *                                                                               C:\Cdc\system\usb\usb9\usb9.c
                                            * Input:           None                                                         C:\Cdc\system\usb\usb9\usb9.c
                                            *                                                                               C:\Cdc\system\usb\usb9\usb9.c
                                            * Output:          None                                                         C:\Cdc\system\usb\usb9\usb9.c
                                            *                                                                               C:\Cdc\system\usb\usb9\usb9.c
                                            * Side Effects:    None                                                         C:\Cdc\system\usb\usb9\usb9.c
                                            *                                                                               C:\Cdc\system\usb\usb9\usb9.c
                                            * Overview:        This routine first disables all endpoints by clearing        C:\Cdc\system\usb\usb9\usb9.c
                                            *                  UEP registers. It then configures (initializes) endpoints    C:\Cdc\system\usb\usb9\usb9.c
                                            *                  specified in the modifiable section.                         C:\Cdc\system\usb\usb9\usb9.c
                                            *                                                                               C:\Cdc\system\usb\usb9\usb9.c
                                            * Note:            None                                                         C:\Cdc\system\usb\usb9\usb9.c
                                            *****************************************************************************/  C:\Cdc\system\usb\usb9\usb9.c
                                           void USBStdSetCfgHandler(void)                                                   C:\Cdc\system\usb\usb9\usb9.c
                                           {                                                                                C:\Cdc\system\usb\usb9\usb9.c
000d2c   0100     MOVLB     0x0                ctrl_trf_session_owner = MUID_USB9;                                          C:\Cdc\system\usb\usb9\usb9.c
000d2e   0e01     MOVLW     0x1                                                                                             
000d30   6fa6     MOVWF     0xa6,0x1                                                                                        
000d32   0e0f     MOVLW     0xf                mDisableEP1to15();                          // See usbdrv.h                  C:\Cdc\system\usb\usb9\usb9.c
000d34   6ee6     MOVWF     0xe6,0x0                                                                                        
000d36   0e71     MOVLW     0x71                                                                                            
000d38   6ee6     MOVWF     0xe6,0x0                                                                                        
000d3a   0e0f     MOVLW     0xf                                                                                             
000d3c   6ee6     MOVWF     0xe6,0x0                                                                                        
000d3e   ec57     CALL      0x14ae,0x0                                                                                      
000d40   f00a                                                                                                               
000d42   52e5     MOVF      0xe5,0x1,0x0                                                                                    
000d44   52e5     MOVF      0xe5,0x1,0x0                                                                                    
000d46   52e5     MOVF      0xe5,0x1,0x0                                                                                    
000d48   0e01     MOVLW     0x1                ClearArray((byte*)&usb_alt_intf,MAX_NUM_INT);                                C:\Cdc\system\usb\usb9\usb9.c
000d4a   6ee6     MOVWF     0xe6,0x0                                                                                        
000d4c   0eb0     MOVLW     0xb0                                                                                            
000d4e   6ee6     MOVWF     0xe6,0x0                                                                                        
000d50   0e00     MOVLW     0x0                                                                                             
000d52   6ee6     MOVWF     0xe6,0x0                                                                                        
000d54   ec57     CALL      0x14ae,0x0                                                                                      
000d56   f00a                                                                                                               
000d58   52e5     MOVF      0xe5,0x1,0x0                                                                                    
000d5a   52e5     MOVF      0xe5,0x1,0x0                                                                                    
000d5c   52e5     MOVF      0xe5,0x1,0x0                                                                                    
000d5e   c422     MOVFF     0x422,0xaf         usb_active_cfg = SetupPkt.bCfgValue;                                         C:\Cdc\system\usb\usb9\usb9.c
000d60   f0af                                                                                                               
000d62   0104     MOVLB     0x4                if(SetupPkt.bCfgValue == 0)                                                  C:\Cdc\system\usb\usb9\usb9.c
000d64   5122     MOVF      0x22,0x0,0x1                                                                                    
000d66   e104     BNZ       0xd70                                                                                           
000d68   0100     MOVLB     0x0                    usb_device_state = ADDRESS_STATE;                                        C:\Cdc\system\usb\usb9\usb9.c
000d6a   0e05     MOVLW     0x5                                                                                             
000d6c   6fad     MOVWF     0xad,0x1                                                                                        
000d6e   d005     BRA       0xd7a              else                                                                         C:\Cdc\system\usb\usb9\usb9.c
                                               {                                                                            C:\Cdc\system\usb\usb9\usb9.c
000d70   0100     MOVLB     0x0                    usb_device_state = CONFIGURED_STATE;                                     C:\Cdc\system\usb\usb9\usb9.c
000d72   0e06     MOVLW     0x6                                                                                             
000d74   6fad     MOVWF     0xad,0x1                                                                                        
                                                                                                                            C:\Cdc\system\usb\usb9\usb9.c
                                                   /* Modifiable Section */                                                 C:\Cdc\system\usb\usb9\usb9.c
                                                                                                                            C:\Cdc\system\usb\usb9\usb9.c
                                                   #if defined(USB_USE_CDC)                // See autofiles\usbcfg.h        C:\Cdc\system\usb\usb9\usb9.c
000d76   ec7e     CALL      0x8fc,0x0              CDCInitEP();                                                             C:\Cdc\system\usb\usb9\usb9.c
000d78   f004                                                                                                               
                                                   #endif                                                                   C:\Cdc\system\usb\usb9\usb9.c
                                                                                                                            C:\Cdc\system\usb\usb9\usb9.c
                                                   /* End modifiable section */                                             C:\Cdc\system\usb\usb9\usb9.c
                                                                                                                            C:\Cdc\system\usb\usb9\usb9.c
                                               }//end if(SetupPkt.bcfgValue == 0)                                           C:\Cdc\system\usb\usb9\usb9.c
000d7a   0012     RETURN    0x0            }//end USBStdSetCfgHandler                                                       C:\Cdc\system\usb\usb9\usb9.c
                                                                                                                            C:\Cdc\system\usb\usb9\usb9.c
                                           /******************************************************************************  C:\Cdc\system\usb\usb9\usb9.c
                                            * Function:        void USBStdGetStatusHandler(void)                            C:\Cdc\system\usb\usb9\usb9.c
                                            *                                                                               C:\Cdc\system\usb\usb9\usb9.c
                                            * PreCondition:    None                                                         C:\Cdc\system\usb\usb9\usb9.c
                                            *                                                                               C:\Cdc\system\usb\usb9\usb9.c
                                            * Input:           None                                                         C:\Cdc\system\usb\usb9\usb9.c
                                            *                                                                               C:\Cdc\system\usb\usb9\usb9.c
                                            * Output:          None                                                         C:\Cdc\system\usb\usb9\usb9.c
                                            *                                                                               C:\Cdc\system\usb\usb9\usb9.c
                                            * Side Effects:    None                                                         C:\Cdc\system\usb\usb9\usb9.c
                                            *                                                                               C:\Cdc\system\usb\usb9\usb9.c
                                            * Overview:        This routine handles the standard GET_STATUS request         C:\Cdc\system\usb\usb9\usb9.c
                                            *                                                                               C:\Cdc\system\usb\usb9\usb9.c
                                            * Note:            None                                                         C:\Cdc\system\usb\usb9\usb9.c
                                            *****************************************************************************/  C:\Cdc\system\usb\usb9\usb9.c
                                           void USBStdGetStatusHandler(void)                                                C:\Cdc\system\usb\usb9\usb9.c
                                           {                                                                                C:\Cdc\system\usb\usb9\usb9.c
000d7c   0104     MOVLB     0x4                CtrlTrfData._byte0 = 0;                         // Initialize content        C:\Cdc\system\usb\usb9\usb9.c
000d7e   6b28     CLRF      0x28,0x1                                                                                        
000d80   6b29     CLRF      0x29,0x1           CtrlTrfData._byte1 = 0;                                                      C:\Cdc\system\usb\usb9\usb9.c
                                                                                                                            C:\Cdc\system\usb\usb9\usb9.c
000d82   0104     MOVLB     0x4                switch(SetupPkt.Recipient)                                                   C:\Cdc\system\usb\usb9\usb9.c
000d84   5120     MOVF      0x20,0x0,0x1                                                                                    
000d86   0b1f     ANDLW     0x1f                                                                                            
000d88   0a02     XORLW     0x2                                                                                             
000d8a   e014     BZ        0xdb4                                                                                           
000d8c   0a03     XORLW     0x3                                                                                             
000d8e   e00e     BZ        0xdac                                                                                           
000d90   0a01     XORLW     0x1                                                                                             
000d92   e001     BZ        0xd96                                                                                           
000d94   d033     BRA       0xdfc                                                                                           
                                               {                                                                            C:\Cdc\system\usb\usb9\usb9.c
                                                   case RCPT_DEV:                                                           C:\Cdc\system\usb\usb9\usb9.c
000d96   0100     MOVLB     0x0                        ctrl_trf_session_owner = MUID_USB9;                                  C:\Cdc\system\usb\usb9\usb9.c
000d98   0e01     MOVLW     0x1                                                                                             
000d9a   6fa6     MOVWF     0xa6,0x1                                                                                        
                                                       /*                                                                   C:\Cdc\system\usb\usb9\usb9.c
                                                        * _byte0: bit0: Self-Powered Status [0] Bus-Powered [1] Self-Powered C:\Cdc\system\usb\usb9\usb9.c
                                                        *         bit1: RemoteWakeup        [0] Disabled    [1] Enabled     C:\Cdc\system\usb\usb9\usb9.c
                                                        */                                                                  C:\Cdc\system\usb\usb9\usb9.c
                                                       if(self_power == 1)                     // self_power defined in io_cfg.h C:\Cdc\system\usb\usb9\usb9.c
000d9c   0104     MOVLB     0x4                            CtrlTrfData._byte0|=0b000000001;    // Set bit0                  C:\Cdc\system\usb\usb9\usb9.c
000d9e   8128     BSF       0x28,0x0,0x1                                                                                    
                                                                                                                            C:\Cdc\system\usb\usb9\usb9.c
000da0   0100     MOVLB     0x0                        if(usb_stat.RemoteWakeup == 1)          // usb_stat defined in usbmmap.c C:\Cdc\system\usb\usb9\usb9.c
000da2   a1ae     BTFSS     0xae,0x0,0x1                                                                                    
000da4   d002     BRA       0xdaa                                                                                           
000da6   0104     MOVLB     0x4                            CtrlTrfData._byte0|=0b00000010;     // Set bit1                  C:\Cdc\system\usb\usb9\usb9.c
000da8   8328     BSF       0x28,0x1,0x1                                                                                    
000daa   d028     BRA       0xdfc                      break;                                                               C:\Cdc\system\usb\usb9\usb9.c
                                                   case RCPT_INTF:                                                          C:\Cdc\system\usb\usb9\usb9.c
000dac   0100     MOVLB     0x0                        ctrl_trf_session_owner = MUID_USB9;     // No data to update         C:\Cdc\system\usb\usb9\usb9.c
000dae   0e01     MOVLW     0x1                                                                                             
000db0   6fa6     MOVWF     0xa6,0x1                                                                                        
000db2   d024     BRA       0xdfc                      break;                                                               C:\Cdc\system\usb\usb9\usb9.c
                                                   case RCPT_EP:                                                            C:\Cdc\system\usb\usb9\usb9.c
000db4   0100     MOVLB     0x0                        ctrl_trf_session_owner = MUID_USB9;                                  C:\Cdc\system\usb\usb9\usb9.c
000db6   0e01     MOVLW     0x1                                                                                             
000db8   6fa6     MOVWF     0xa6,0x1                                                                                        
                                                       /*                                                                   C:\Cdc\system\usb\usb9\usb9.c
                                                        * _byte0: bit0: Halt Status [0] Not Halted [1] Halted               C:\Cdc\system\usb\usb9\usb9.c
                                                        */                                                                  C:\Cdc\system\usb\usb9\usb9.c
000dba   0104     MOVLB     0x4                        pDst.bRam = (byte*)&ep0Bo+(SetupPkt.EPNum*8)+(SetupPkt.EPDir*4);     C:\Cdc\system\usb\usb9\usb9.c
000dbc   5124     MOVF      0x24,0x0,0x1                                                                                    
000dbe   0b0f     ANDLW     0xf                                                                                             
000dc0   0d08     MULLW     0x8                                                                                             
000dc2   50f3     MOVF      0xf3,0x0,0x0                                                                                    
000dc4   6a03     CLRF      0x3,0x0                                                                                         
000dc6   0f00     ADDLW     0x0                                                                                             
000dc8   6e02     MOVWF     0x2,0x0                                                                                         
000dca   0e04     MOVLW     0x4                                                                                             
000dcc   2203     ADDWFC    0x3,0x1,0x0                                                                                     
000dce   5124     MOVF      0x24,0x0,0x1                                                                                    
000dd0   0b80     ANDLW     0x80                                                                                            
000dd2   e001     BZ        0xdd6                                                                                           
000dd4   0e01     MOVLW     0x1                                                                                             
000dd6   0d04     MULLW     0x4                                                                                             
000dd8   50f3     MOVF      0xf3,0x0,0x0                                                                                    
000dda   0100     MOVLB     0x0                                                                                             
000ddc   2402     ADDWF     0x2,0x0,0x0                                                                                     
000dde   6fa9     MOVWF     0xa9,0x1                                                                                        
000de0   0e00     MOVLW     0x0                                                                                             
000de2   2003     ADDWFC    0x3,0x0,0x0                                                                                     
000de4   6faa     MOVWF     0xaa,0x1                                                                                        
000de6   c0a9     MOVFF     0xa9,0xfe9                 if(*pDst.bRam & _BSTALL)    // Use _BSTALL as a bit mask             C:\Cdc\system\usb\usb9\usb9.c
000de8   ffe9                                                                                                               
000dea   c0aa     MOVFF     0xaa,0xfea                                                                                      
000dec   ffea                                                                                                               
000dee   50ef     MOVF      0xef,0x0,0x0                                                                                    
000df0   0b04     ANDLW     0x4                                                                                             
000df2   e003     BZ        0xdfa                                                                                           
000df4   0104     MOVLB     0x4                            CtrlTrfData._byte0=0x01;// Set bit0                              C:\Cdc\system\usb\usb9\usb9.c
000df6   0e01     MOVLW     0x1                                                                                             
000df8   6f28     MOVWF     0x28,0x1                                                                                        
000dfa   d000     BRA       0xdfc                      break;                                                               C:\Cdc\system\usb\usb9\usb9.c
                                               }//end switch                                                                C:\Cdc\system\usb\usb9\usb9.c
                                                                                                                            C:\Cdc\system\usb\usb9\usb9.c
000dfc   0100     MOVLB     0x0                if(ctrl_trf_session_owner == MUID_USB9)                                      C:\Cdc\system\usb\usb9\usb9.c
000dfe   05a6     DECF      0xa6,0x0,0x1                                                                                    
000e00   e10a     BNZ       0xe16                                                                                           
                                               {                                                                            C:\Cdc\system\usb\usb9\usb9.c
000e02   0100     MOVLB     0x0                    pSrc.bRam = (byte*)&CtrlTrfData;            // Set Source                C:\Cdc\system\usb\usb9\usb9.c
000e04   0e28     MOVLW     0x28                                                                                            
000e06   6fa7     MOVWF     0xa7,0x1                                                                                        
000e08   0e04     MOVLW     0x4                                                                                             
000e0a   6fa8     MOVWF     0xa8,0x1                                                                                        
000e0c   0100     MOVLB     0x0                    usb_stat.ctrl_trf_mem = _RAM;               // Set memory type           C:\Cdc\system\usb\usb9\usb9.c
000e0e   93ae     BCF       0xae,0x1,0x1                                                                                    
000e10   0100     MOVLB     0x0                    LSB(wCount) = 2;                            // Set data count            C:\Cdc\system\usb\usb9\usb9.c
000e12   0e02     MOVLW     0x2                                                                                             
000e14   6fab     MOVWF     0xab,0x1                                                                                        
                                               }//end if(...)                                                               C:\Cdc\system\usb\usb9\usb9.c
000e16   0012     RETURN    0x0            }//end USBStdGetStatusHandler                                                    C:\Cdc\system\usb\usb9\usb9.c
                                                                                                                            C:\Cdc\system\usb\usb9\usb9.c
                                           /******************************************************************************  C:\Cdc\system\usb\usb9\usb9.c
                                            * Function:        void USBStdFeatureReqHandler(void)                           C:\Cdc\system\usb\usb9\usb9.c
                                            *                                                                               C:\Cdc\system\usb\usb9\usb9.c
                                            * PreCondition:    None                                                         C:\Cdc\system\usb\usb9\usb9.c
                                            *                                                                               C:\Cdc\system\usb\usb9\usb9.c
                                            * Input:           None                                                         C:\Cdc\system\usb\usb9\usb9.c
                                            *                                                                               C:\Cdc\system\usb\usb9\usb9.c
                                            * Output:          None                                                         C:\Cdc\system\usb\usb9\usb9.c
                                            *                                                                               C:\Cdc\system\usb\usb9\usb9.c
                                            * Side Effects:    None                                                         C:\Cdc\system\usb\usb9\usb9.c
                                            *                                                                               C:\Cdc\system\usb\usb9\usb9.c
                                            * Overview:        This routine handles the standard SET & CLEAR FEATURES       C:\Cdc\system\usb\usb9\usb9.c
                                            *                  requests                                                     C:\Cdc\system\usb\usb9\usb9.c
                                            *                                                                               C:\Cdc\system\usb\usb9\usb9.c
                                            * Note:            None                                                         C:\Cdc\system\usb\usb9\usb9.c
                                            *****************************************************************************/  C:\Cdc\system\usb\usb9\usb9.c
                                           void USBStdFeatureReqHandler(void)                                               C:\Cdc\system\usb\usb9\usb9.c
                                           {                                                                                C:\Cdc\system\usb\usb9\usb9.c
000e18   0104     MOVLB     0x4                if((SetupPkt.bFeature == DEVICE_REMOTE_WAKEUP)&&                             C:\Cdc\system\usb\usb9\usb9.c
000e1a   0522     DECF      0x22,0x0,0x1                                                                                    
000e1c   e110     BNZ       0xe3e                 (SetupPkt.Recipient == RCPT_DEV))                                         C:\Cdc\system\usb\usb9\usb9.c
000e1e   5120     MOVF      0x20,0x0,0x1                                                                                    
000e20   0b1f     ANDLW     0x1f                                                                                            
000e22   0900     IORLW     0x0                                                                                             
000e24   e10c     BNZ       0xe3e                                                                                           
                                               {                                                                            C:\Cdc\system\usb\usb9\usb9.c
000e26   0100     MOVLB     0x0                    ctrl_trf_session_owner = MUID_USB9;                                      C:\Cdc\system\usb\usb9\usb9.c
000e28   0e01     MOVLW     0x1                                                                                             
000e2a   6fa6     MOVWF     0xa6,0x1                                                                                        
000e2c   0e03     MOVLW     0x3                    if(SetupPkt.bRequest == SET_FEATURE)                                     C:\Cdc\system\usb\usb9\usb9.c
000e2e   0104     MOVLB     0x4                                                                                             
000e30   5d21     SUBWF     0x21,0x0,0x1                                                                                    
000e32   e103     BNZ       0xe3a                                                                                           
000e34   0100     MOVLB     0x0                        usb_stat.RemoteWakeup = 1;                                           C:\Cdc\system\usb\usb9\usb9.c
000e36   81ae     BSF       0xae,0x0,0x1                                                                                    
000e38   d002     BRA       0xe3e                  else                                                                     C:\Cdc\system\usb\usb9\usb9.c
000e3a   0100     MOVLB     0x0                        usb_stat.RemoteWakeup = 0;                                           C:\Cdc\system\usb\usb9\usb9.c
000e3c   91ae     BCF       0xae,0x0,0x1                                                                                    
                                               }//end if                                                                    C:\Cdc\system\usb\usb9\usb9.c
                                                                                                                            C:\Cdc\system\usb\usb9\usb9.c
000e3e   0104     MOVLB     0x4                if((SetupPkt.bFeature == ENDPOINT_HALT)&&                                    C:\Cdc\system\usb\usb9\usb9.c
000e40   5122     MOVF      0x22,0x0,0x1                                                                                    
000e42   e13a     BNZ       0xeb8                 (SetupPkt.Recipient == RCPT_EP)&&                                         C:\Cdc\system\usb\usb9\usb9.c
000e44   5120     MOVF      0x20,0x0,0x1                                                                                    
000e46   0b1f     ANDLW     0x1f                                                                                            
000e48   0802     SUBLW     0x2                                                                                             
000e4a   e136     BNZ       0xeb8                                                                                           
000e4c   5124     MOVF      0x24,0x0,0x1          (SetupPkt.EPNum != 0))                                                    C:\Cdc\system\usb\usb9\usb9.c
000e4e   0b0f     ANDLW     0xf                                                                                             
000e50   0900     IORLW     0x0                                                                                             
000e52   e032     BZ        0xeb8                                                                                           
                                               {                                                                            C:\Cdc\system\usb\usb9\usb9.c
000e54   0100     MOVLB     0x0                    ctrl_trf_session_owner = MUID_USB9;                                      C:\Cdc\system\usb\usb9\usb9.c
000e56   0e01     MOVLW     0x1                                                                                             
000e58   6fa6     MOVWF     0xa6,0x1                                                                                        
                                                   /* Must do address calculation here */                                   C:\Cdc\system\usb\usb9\usb9.c
000e5a   0104     MOVLB     0x4                    pDst.bRam = (byte*)&ep0Bo+(SetupPkt.EPNum*8)+(SetupPkt.EPDir*4);         C:\Cdc\system\usb\usb9\usb9.c
000e5c   5124     MOVF      0x24,0x0,0x1                                                                                    
000e5e   0b0f     ANDLW     0xf                                                                                             
000e60   0d08     MULLW     0x8                                                                                             
000e62   50f3     MOVF      0xf3,0x0,0x0                                                                                    
000e64   6a03     CLRF      0x3,0x0                                                                                         
000e66   0f00     ADDLW     0x0                                                                                             
000e68   6e02     MOVWF     0x2,0x0                                                                                         
000e6a   0e04     MOVLW     0x4                                                                                             
000e6c   2203     ADDWFC    0x3,0x1,0x0                                                                                     
000e6e   5124     MOVF      0x24,0x0,0x1                                                                                    
000e70   0b80     ANDLW     0x80                                                                                            
000e72   e001     BZ        0xe76                                                                                           
000e74   0e01     MOVLW     0x1                                                                                             
000e76   0d04     MULLW     0x4                                                                                             
000e78   50f3     MOVF      0xf3,0x0,0x0                                                                                    
000e7a   0100     MOVLB     0x0                                                                                             
000e7c   2402     ADDWF     0x2,0x0,0x0                                                                                     
000e7e   6fa9     MOVWF     0xa9,0x1                                                                                        
000e80   0e00     MOVLW     0x0                                                                                             
000e82   2003     ADDWFC    0x3,0x0,0x0                                                                                     
000e84   6faa     MOVWF     0xaa,0x1                                                                                        
                                                                                                                            C:\Cdc\system\usb\usb9\usb9.c
000e86   0e03     MOVLW     0x3                    if(SetupPkt.bRequest == SET_FEATURE)                                     C:\Cdc\system\usb\usb9\usb9.c
000e88   0104     MOVLB     0x4                                                                                             
000e8a   5d21     SUBWF     0x21,0x0,0x1                                                                                    
000e8c   e107     BNZ       0xe9c                                                                                           
000e8e   0e84     MOVLW     0x84                       *pDst.bRam = _USIE|_BSTALL;                                          C:\Cdc\system\usb\usb9\usb9.c
000e90   c0a9     MOVFF     0xa9,0xfe9                                                                                      
000e92   ffe9                                                                                                               
000e94   c0aa     MOVFF     0xaa,0xfea                                                                                      
000e96   ffea                                                                                                               
000e98   6eef     MOVWF     0xef,0x0                                                                                        
000e9a   d00e     BRA       0xeb8                  else                                                                     C:\Cdc\system\usb\usb9\usb9.c
                                                   {                                                                        C:\Cdc\system\usb\usb9\usb9.c
000e9c   af24     BTFSS     0x24,0x7,0x1               if(SetupPkt.EPDir == 1) // IN                                        C:\Cdc\system\usb\usb9\usb9.c
000e9e   d006     BRA       0xeac                                                                                           
000ea0   c0a9     MOVFF     0xa9,0xfe9                     *pDst.bRam = _UCPU;                                              C:\Cdc\system\usb\usb9\usb9.c
000ea2   ffe9                                                                                                               
000ea4   c0aa     MOVFF     0xaa,0xfea                                                                                      
000ea6   ffea                                                                                                               
000ea8   6aef     CLRF      0xef,0x0                                                                                        
000eaa   d006     BRA       0xeb8                      else                                                                 C:\Cdc\system\usb\usb9\usb9.c
000eac   0e88     MOVLW     0x88                           *pDst.bRam = _USIE|_DAT0|_DTSEN;                                 C:\Cdc\system\usb\usb9\usb9.c
000eae   c0a9     MOVFF     0xa9,0xfe9                                                                                      
000eb0   ffe9                                                                                                               
000eb2   c0aa     MOVFF     0xaa,0xfea                                                                                      
000eb4   ffea                                                                                                               
000eb6   6eef     MOVWF     0xef,0x0                                                                                        
                                                   }//end if                                                                C:\Cdc\system\usb\usb9\usb9.c
                                               }//end if                                                                    C:\Cdc\system\usb\usb9\usb9.c
000eb8   0012     RETURN    0x0            }//end USBStdFeatureReqHandler                                                   C:\Cdc\system\usb\usb9\usb9.c
                                                                                                                            C:\Cdc\system\usb\usb9\usb9.c
                                           /** EOF usb9.c ***************************************************************/  C:\Cdc\system\usb\usb9\usb9.c
                                           /*********************************************************************           C:\Cdc\autofiles\usbdsc.c
                                            *                                                                               C:\Cdc\autofiles\usbdsc.c
                                            *                Microchip USB C18 Firmware Version 1.0                         C:\Cdc\autofiles\usbdsc.c
                                            *                                                                               C:\Cdc\autofiles\usbdsc.c
                                            *********************************************************************           C:\Cdc\autofiles\usbdsc.c
                                            * FileName:        usbdsc.c                                                     C:\Cdc\autofiles\usbdsc.c
                                            * Dependencies:    See INCLUDES section below                                   C:\Cdc\autofiles\usbdsc.c
                                            * Processor:       PIC18                                                        C:\Cdc\autofiles\usbdsc.c
                                            * Compiler:        C18 2.30.01+                                                 C:\Cdc\autofiles\usbdsc.c
                                            * Company:         Microchip Technology, Inc.                                   C:\Cdc\autofiles\usbdsc.c
                                            *                                                                               C:\Cdc\autofiles\usbdsc.c
                                            * Software License Agreement                                                    C:\Cdc\autofiles\usbdsc.c
                                            *                                                                               C:\Cdc\autofiles\usbdsc.c
                                            * The software supplied herewith by Microchip Technology Incorporated           C:\Cdc\autofiles\usbdsc.c
                                            * (the “Company”) for its PICmicro® Microcontroller is intended and             C:\Cdc\autofiles\usbdsc.c
                                            * supplied to you, the Company’s customer, for use solely and                   C:\Cdc\autofiles\usbdsc.c
                                            * exclusively on Microchip PICmicro Microcontroller products. The               C:\Cdc\autofiles\usbdsc.c
                                            * software is owned by the Company and/or its supplier, and is                  C:\Cdc\autofiles\usbdsc.c
                                            * protected under applicable copyright laws. All rights are reserved.           C:\Cdc\autofiles\usbdsc.c
                                            * Any use in violation of the foregoing restrictions may subject the            C:\Cdc\autofiles\usbdsc.c
                                            * user to criminal sanctions under applicable laws, as well as to               C:\Cdc\autofiles\usbdsc.c
                                            * civil liability for the breach of the terms and conditions of this            C:\Cdc\autofiles\usbdsc.c
                                            * license.                                                                      C:\Cdc\autofiles\usbdsc.c
                                            *                                                                               C:\Cdc\autofiles\usbdsc.c
                                            * THIS SOFTWARE IS PROVIDED IN AN “AS IS” CONDITION. NO WARRANTIES,             C:\Cdc\autofiles\usbdsc.c
                                            * WHETHER EXPRESS, IMPLIED OR STATUTORY, INCLUDING, BUT NOT LIMITED             C:\Cdc\autofiles\usbdsc.c
                                            * TO, IMPLIED WARRANTIES OF MERCHANTABILITY AND FITNESS FOR A                   C:\Cdc\autofiles\usbdsc.c
                                            * PARTICULAR PURPOSE APPLY TO THIS SOFTWARE. THE COMPANY SHALL NOT,             C:\Cdc\autofiles\usbdsc.c
                                            * IN ANY CIRCUMSTANCES, BE LIABLE FOR SPECIAL, INCIDENTAL OR                    C:\Cdc\autofiles\usbdsc.c
                                            * CONSEQUENTIAL DAMAGES, FOR ANY REASON WHATSOEVER.                             C:\Cdc\autofiles\usbdsc.c
                                            *                                                                               C:\Cdc\autofiles\usbdsc.c
                                            ********************************************************************/           C:\Cdc\autofiles\usbdsc.c
                                                                                                                            C:\Cdc\autofiles\usbdsc.c
                                           /*********************************************************************           C:\Cdc\autofiles\usbdsc.c
                                            * -usbdsc.c-                                                                    C:\Cdc\autofiles\usbdsc.c
                                            * This file contains the USB descriptor information. It is used                 C:\Cdc\autofiles\usbdsc.c
                                            * in conjunction with the usbdsc.h file. When a descriptor is added             C:\Cdc\autofiles\usbdsc.c
                                            * or removed from the main configuration descriptor, i.e. CFG01,                C:\Cdc\autofiles\usbdsc.c
                                            * the user must also change the descriptor structure defined in                 C:\Cdc\autofiles\usbdsc.c
                                            * the usbdsc.h file. The structure is used to calculate the                     C:\Cdc\autofiles\usbdsc.c
                                            * descriptor size, i.e. sizeof(CFG01).                                          C:\Cdc\autofiles\usbdsc.c
                                            *                                                                               C:\Cdc\autofiles\usbdsc.c
                                            * A typical configuration descriptor consists of:                               C:\Cdc\autofiles\usbdsc.c
                                            * At least one configuration descriptor (USB_CFG_DSC)                           C:\Cdc\autofiles\usbdsc.c
                                            * One or more interface descriptors (USB_INTF_DSC)                              C:\Cdc\autofiles\usbdsc.c
                                            * One or more endpoint descriptors (USB_EP_DSC)                                 C:\Cdc\autofiles\usbdsc.c
                                            *                                                                               C:\Cdc\autofiles\usbdsc.c
                                            * Naming Convention:                                                            C:\Cdc\autofiles\usbdsc.c
                                            * To resolve ambiguity, the naming convention are as followed:                  C:\Cdc\autofiles\usbdsc.c
                                            * - USB_CFG_DSC type should be named cdxx, where xx is the                      C:\Cdc\autofiles\usbdsc.c
                                            *   configuration number. This number should match the actual                   C:\Cdc\autofiles\usbdsc.c
                                            *   index value of this configuration.                                          C:\Cdc\autofiles\usbdsc.c
                                            * - USB_INTF_DSC type should be named i<yy>a<zz>, where yy is the               C:\Cdc\autofiles\usbdsc.c
                                            *   interface number and zz is the alternate interface number.                  C:\Cdc\autofiles\usbdsc.c
                                            * - USB_EP_DSC type should be named ep<##><d>_i<yy>a<zz>, where                 C:\Cdc\autofiles\usbdsc.c
                                            *   ## is the endpoint number and d is the direction of transfer.               C:\Cdc\autofiles\usbdsc.c
                                            *   The interface name should also be listed as a suffix to identify            C:\Cdc\autofiles\usbdsc.c
                                            *   which interface does the endpoint belong to.                                C:\Cdc\autofiles\usbdsc.c
                                            *                                                                               C:\Cdc\autofiles\usbdsc.c
                                            * Example:                                                                      C:\Cdc\autofiles\usbdsc.c
                                            * If a device has one configuration, two interfaces; interface 0                C:\Cdc\autofiles\usbdsc.c
                                            * has two endpoints (in and out), and interface 1 has one endpoint(in).         C:\Cdc\autofiles\usbdsc.c
                                            * Then the CFG01 structure in the usbdsc.h should be:                           C:\Cdc\autofiles\usbdsc.c
                                            *                                                                               C:\Cdc\autofiles\usbdsc.c
                                            * #define CFG01 rom struct                            \                         C:\Cdc\autofiles\usbdsc.c
                                            * {   USB_CFG_DSC             cd01;                   \                         C:\Cdc\autofiles\usbdsc.c
                                            *     USB_INTF_DSC            i00a00;                 \                         C:\Cdc\autofiles\usbdsc.c
                                            *     USB_EP_DSC              ep01o_i00a00;           \                         C:\Cdc\autofiles\usbdsc.c
                                            *     USB_EP_DSC              ep01i_i00a00;           \                         C:\Cdc\autofiles\usbdsc.c
                                            *     USB_INTF_DSC            i01a00;                 \                         C:\Cdc\autofiles\usbdsc.c
                                            *     USB_EP_DSC              ep02i_i01a00;           \                         C:\Cdc\autofiles\usbdsc.c
                                            * } cfg01                                                                       C:\Cdc\autofiles\usbdsc.c
                                            *                                                                               C:\Cdc\autofiles\usbdsc.c
                                            * Note the hierarchy of the descriptors above, it follows the USB               C:\Cdc\autofiles\usbdsc.c
                                            * specification requirement. All endpoints belonging to an interface            C:\Cdc\autofiles\usbdsc.c
                                            * should be listed immediately after that interface.                            C:\Cdc\autofiles\usbdsc.c
                                            *                                                                               C:\Cdc\autofiles\usbdsc.c
                                            * -------------------------------------------------------------------           C:\Cdc\autofiles\usbdsc.c
                                            * Filling in the descriptor values in the usbdsc.c file:                        C:\Cdc\autofiles\usbdsc.c
                                            * -------------------------------------------------------------------           C:\Cdc\autofiles\usbdsc.c
                                            * Most items should be self-explanatory, however, a few will be                 C:\Cdc\autofiles\usbdsc.c
                                            * explained for clarification.                                                  C:\Cdc\autofiles\usbdsc.c
                                            *                                                                               C:\Cdc\autofiles\usbdsc.c
                                            * [Configuration Descriptor(USB_CFG_DSC)]                                       C:\Cdc\autofiles\usbdsc.c
                                            * The configuration attribute must always have the _DEFAULT                     C:\Cdc\autofiles\usbdsc.c
                                            * definition at the minimum. Additional options can be ORed                     C:\Cdc\autofiles\usbdsc.c
                                            * to the _DEFAULT attribute. Available options are _SELF and _RWU.              C:\Cdc\autofiles\usbdsc.c
                                            * These definitions are defined in the usbdefs_std_dsc.h file. The              C:\Cdc\autofiles\usbdsc.c
                                            * _SELF tells the USB host that this device is self-powered. The                C:\Cdc\autofiles\usbdsc.c
                                            * _RWU tells the USB host that this device supports Remote Wakeup.              C:\Cdc\autofiles\usbdsc.c
                                            *                                                                               C:\Cdc\autofiles\usbdsc.c
                                            * [Endpoint Descriptor(USB_EP_DSC)]                                             C:\Cdc\autofiles\usbdsc.c
                                            * Assume the following example:                                                 C:\Cdc\autofiles\usbdsc.c
                                            * sizeof(USB_EP_DSC),DSC_EP,_EP01_OUT,_BULK,64,0x00                             C:\Cdc\autofiles\usbdsc.c
                                            *                                                                               C:\Cdc\autofiles\usbdsc.c
                                            * The first two parameters are self-explanatory. They specify the               C:\Cdc\autofiles\usbdsc.c
                                            * length of this endpoint descriptor (7) and the descriptor type.               C:\Cdc\autofiles\usbdsc.c
                                            * The next parameter identifies the endpoint, the definitions are               C:\Cdc\autofiles\usbdsc.c
                                            * defined in usbdefs_std_dsc.h and has the following naming                     C:\Cdc\autofiles\usbdsc.c
                                            * convention:                                                                   C:\Cdc\autofiles\usbdsc.c
                                            * _EP<##>_<dir>                                                                 C:\Cdc\autofiles\usbdsc.c
                                            * where ## is the endpoint number and dir is the direction of                   C:\Cdc\autofiles\usbdsc.c
                                            * transfer. The dir has the value of either 'OUT' or 'IN'.                      C:\Cdc\autofiles\usbdsc.c
                                            * The next parameter identifies the type of the endpoint. Available             C:\Cdc\autofiles\usbdsc.c
                                            * options are _BULK, _INT, _ISO, and _CTRL. The _CTRL is not                    C:\Cdc\autofiles\usbdsc.c
                                            * typically used because the default control transfer endpoint is               C:\Cdc\autofiles\usbdsc.c
                                            * not defined in the USB descriptors. When _ISO option is used,                 C:\Cdc\autofiles\usbdsc.c
                                            * addition options can be ORed to _ISO. Example:                                C:\Cdc\autofiles\usbdsc.c
                                            * _ISO|_AD|_FE                                                                  C:\Cdc\autofiles\usbdsc.c
                                            * This describes the endpoint as an isochronous pipe with adaptive              C:\Cdc\autofiles\usbdsc.c
                                            * and feedback attributes. See usbdefs_std_dsc.h and the USB                    C:\Cdc\autofiles\usbdsc.c
                                            * specification for details. The next parameter defines the size of             C:\Cdc\autofiles\usbdsc.c
                                            * the endpoint. The last parameter in the polling interval.                     C:\Cdc\autofiles\usbdsc.c
                                            *                                                                               C:\Cdc\autofiles\usbdsc.c
                                            * -------------------------------------------------------------------           C:\Cdc\autofiles\usbdsc.c
                                            * Adding a USB String                                                           C:\Cdc\autofiles\usbdsc.c
                                            * -------------------------------------------------------------------           C:\Cdc\autofiles\usbdsc.c
                                            * A string descriptor array should have the following format:                   C:\Cdc\autofiles\usbdsc.c
                                            *                                                                               C:\Cdc\autofiles\usbdsc.c
                                            * rom struct{byte bLength;byte bDscType;word string[size];}sdxxx={              C:\Cdc\autofiles\usbdsc.c
                                            * sizeof(sdxxx),DSC_STR,<text>};                                                C:\Cdc\autofiles\usbdsc.c
                                            *                                                                               C:\Cdc\autofiles\usbdsc.c
                                            * The above structure provides a means for the C compiler to                    C:\Cdc\autofiles\usbdsc.c
                                            * calculate the length of string descriptor sdxxx, where xxx is the             C:\Cdc\autofiles\usbdsc.c
                                            * index number. The first two bytes of the descriptor are descriptor            C:\Cdc\autofiles\usbdsc.c
                                            * length and type. The rest <text> are string texts which must be               C:\Cdc\autofiles\usbdsc.c
                                            * in the unicode format. The unicode format is achieved by declaring            C:\Cdc\autofiles\usbdsc.c
                                            * each character as a word type. The whole text string is declared              C:\Cdc\autofiles\usbdsc.c
                                            * as a word array with the number of characters equals to <size>.               C:\Cdc\autofiles\usbdsc.c
                                            * <size> has to be manually counted and entered into the array                  C:\Cdc\autofiles\usbdsc.c
                                            * declaration. Let's study this through an example:                             C:\Cdc\autofiles\usbdsc.c
                                            * if the string is "USB" , then the string descriptor should be:                C:\Cdc\autofiles\usbdsc.c
                                            * (Using index 02)                                                              C:\Cdc\autofiles\usbdsc.c
                                            * rom struct{byte bLength;byte bDscType;word string[3];}sd002={                 C:\Cdc\autofiles\usbdsc.c
                                            * sizeof(sd002),DSC_STR,'U','S','B'};                                           C:\Cdc\autofiles\usbdsc.c
                                            *                                                                               C:\Cdc\autofiles\usbdsc.c
                                            * A USB project may have multiple strings and the firmware supports             C:\Cdc\autofiles\usbdsc.c
                                            * the management of multiple strings through a look-up table.                   C:\Cdc\autofiles\usbdsc.c
                                            * The look-up table is defined as:                                              C:\Cdc\autofiles\usbdsc.c
                                            * rom const unsigned char *rom USB_SD_Ptr[]={&sd000,&sd001,&sd002};             C:\Cdc\autofiles\usbdsc.c
                                            *                                                                               C:\Cdc\autofiles\usbdsc.c
                                            * The above declaration has 3 strings, sd000, sd001, and sd002.                 C:\Cdc\autofiles\usbdsc.c
                                            * Strings can be removed or added. sd000 is a specialized string                C:\Cdc\autofiles\usbdsc.c
                                            * descriptor. It defines the language code, usually this is                     C:\Cdc\autofiles\usbdsc.c
                                            * US English (0x0409). The index of the string must match the index             C:\Cdc\autofiles\usbdsc.c
                                            * position of the USB_SD_Ptr array, &sd000 must be in position                  C:\Cdc\autofiles\usbdsc.c
                                            * USB_SD_Ptr[0], &sd001 must be in position USB_SD_Ptr[1] and so on.            C:\Cdc\autofiles\usbdsc.c
                                            * The look-up table USB_SD_Ptr is used by the get string handler                C:\Cdc\autofiles\usbdsc.c
                                            * function in usb9.c.                                                           C:\Cdc\autofiles\usbdsc.c
                                            *                                                                               C:\Cdc\autofiles\usbdsc.c
                                            * -------------------------------------------------------------------           C:\Cdc\autofiles\usbdsc.c
                                            *                                                                               C:\Cdc\autofiles\usbdsc.c
                                            * The look-up table scheme also applies to the configuration                    C:\Cdc\autofiles\usbdsc.c
                                            * descriptor. A USB device may have multiple configuration                      C:\Cdc\autofiles\usbdsc.c
                                            * descriptors, i.e. CFG01, CFG02, etc. To add a configuration                   C:\Cdc\autofiles\usbdsc.c
                                            * descriptor, user must implement a structure similar to CFG01.                 C:\Cdc\autofiles\usbdsc.c
                                            * The next step is to add the configuration descriptor name, i.e.               C:\Cdc\autofiles\usbdsc.c
                                            * cfg01, cfg02,.., to the look-up table USB_CD_Ptr. USB_CD_Ptr[0]               C:\Cdc\autofiles\usbdsc.c
                                            * is a dummy place holder since configuration 0 is the un-configured            C:\Cdc\autofiles\usbdsc.c
                                            * state according to the definition in the USB specification.                   C:\Cdc\autofiles\usbdsc.c
                                            *                                                                               C:\Cdc\autofiles\usbdsc.c
                                            ********************************************************************/           C:\Cdc\autofiles\usbdsc.c
                                                                                                                            C:\Cdc\autofiles\usbdsc.c
                                           /*********************************************************************           C:\Cdc\autofiles\usbdsc.c
                                            * Descriptor specific type definitions are defined in:                          C:\Cdc\autofiles\usbdsc.c
                                            * system\usb\usbdefs\usbdefs_std_dsc.h                                          C:\Cdc\autofiles\usbdsc.c
                                            *                                                                               C:\Cdc\autofiles\usbdsc.c
                                            * Configuration information is defined in:                                      C:\Cdc\autofiles\usbdsc.c
                                            * autofiles\usbcfg.h                                                            C:\Cdc\autofiles\usbdsc.c
                                            ********************************************************************/           C:\Cdc\autofiles\usbdsc.c
                                                                                                                            C:\Cdc\autofiles\usbdsc.c
                                           /** I N C L U D E S *************************************************/           C:\Cdc\autofiles\usbdsc.c
                                           #include "system\typedefs.h"                                                     C:\Cdc\autofiles\usbdsc.c
                                           #include "system\usb\usb.h"                                                      C:\Cdc\autofiles\usbdsc.c
                                                                                                                            C:\Cdc\autofiles\usbdsc.c
                                           /** C O N S T A N T S ************************************************/          C:\Cdc\autofiles\usbdsc.c
                                           #pragma romdata                                                                  C:\Cdc\autofiles\usbdsc.c
                                                                                                                            C:\Cdc\autofiles\usbdsc.c
                                           /* Device Descriptor */                                                          C:\Cdc\autofiles\usbdsc.c
                                           rom USB_DEV_DSC device_dsc=                                                      C:\Cdc\autofiles\usbdsc.c
                                           {                                                                                C:\Cdc\autofiles\usbdsc.c
                                               sizeof(USB_DEV_DSC),    // Size of this descriptor in bytes                  C:\Cdc\autofiles\usbdsc.c
                                               DSC_DEV,                // DEVICE descriptor type                            C:\Cdc\autofiles\usbdsc.c
                                               0x0200,                 // USB Spec Release Number in BCD format             C:\Cdc\autofiles\usbdsc.c
                                               CDC_DEVICE,             // Class Code                                        C:\Cdc\autofiles\usbdsc.c
                                               0x00,                   // Subclass code                                     C:\Cdc\autofiles\usbdsc.c
                                               0x00,                   // Protocol code                                     C:\Cdc\autofiles\usbdsc.c
                                               EP0_BUFF_SIZE,          // Max packet size for EP0, see usbcfg.h             C:\Cdc\autofiles\usbdsc.c
                                               0x04D8,                 // Vendor ID                                         C:\Cdc\autofiles\usbdsc.c
                                               0x000A,                 // Product ID: CDC RS-232 Emulation Demo             C:\Cdc\autofiles\usbdsc.c
                                               0x0000,                 // Device release number in BCD format               C:\Cdc\autofiles\usbdsc.c
                                               0x01,                   // Manufacturer string index                         C:\Cdc\autofiles\usbdsc.c
                                               0x02,                   // Product string index                              C:\Cdc\autofiles\usbdsc.c
                                               0x00,                   // Device serial number string index                 C:\Cdc\autofiles\usbdsc.c
                                               0x01                    // Number of possible configurations                 C:\Cdc\autofiles\usbdsc.c
                                           };                                                                               C:\Cdc\autofiles\usbdsc.c
                                                                                                                            C:\Cdc\autofiles\usbdsc.c
                                           /* Configuration 1 Descriptor */                                                 C:\Cdc\autofiles\usbdsc.c
                                           CFG01=                                                                           C:\Cdc\autofiles\usbdsc.c
                                           {                                                                                C:\Cdc\autofiles\usbdsc.c
                                               /* Configuration Descriptor */                                               C:\Cdc\autofiles\usbdsc.c
                                               sizeof(USB_CFG_DSC),    // Size of this descriptor in bytes                  C:\Cdc\autofiles\usbdsc.c
                                               DSC_CFG,                // CONFIGURATION descriptor type                     C:\Cdc\autofiles\usbdsc.c
                                               sizeof(cfg01),          // Total length of data for this cfg                 C:\Cdc\autofiles\usbdsc.c
                                               2,                      // Number of interfaces in this cfg                  C:\Cdc\autofiles\usbdsc.c
                                               1,                      // Index value of this configuration                 C:\Cdc\autofiles\usbdsc.c
                                               0,                      // Configuration string index                        C:\Cdc\autofiles\usbdsc.c
                                               _DEFAULT,               // Attributes, see usbdefs_std_dsc.h                 C:\Cdc\autofiles\usbdsc.c
                                               50,                     // Max power consumption (2X mA)                     C:\Cdc\autofiles\usbdsc.c
                                                                                                                            C:\Cdc\autofiles\usbdsc.c
                                               /* Interface Descriptor */                                                   C:\Cdc\autofiles\usbdsc.c
                                               sizeof(USB_INTF_DSC),   // Size of this descriptor in bytes                  C:\Cdc\autofiles\usbdsc.c
                                               DSC_INTF,               // INTERFACE descriptor type                         C:\Cdc\autofiles\usbdsc.c
                                               0,                      // Interface Number                                  C:\Cdc\autofiles\usbdsc.c
                                               0,                      // Alternate Setting Number                          C:\Cdc\autofiles\usbdsc.c
                                               1,                      // Number of endpoints in this intf                  C:\Cdc\autofiles\usbdsc.c
                                               COMM_INTF,              // Class code                                        C:\Cdc\autofiles\usbdsc.c
                                               ABSTRACT_CONTROL_MODEL, // Subclass code                                     C:\Cdc\autofiles\usbdsc.c
                                               V25TER,                 // Protocol code                                     C:\Cdc\autofiles\usbdsc.c
                                               0,                      // Interface string index                            C:\Cdc\autofiles\usbdsc.c
                                                                                                                            C:\Cdc\autofiles\usbdsc.c
                                               /* CDC Class-Specific Descriptors */                                         C:\Cdc\autofiles\usbdsc.c
                                               sizeof(USB_CDC_HEADER_FN_DSC),CS_INTERFACE,DSC_FN_HEADER,0x0110,             C:\Cdc\autofiles\usbdsc.c
                                               sizeof(USB_CDC_ACM_FN_DSC),CS_INTERFACE,DSC_FN_ACM,0x02,                     C:\Cdc\autofiles\usbdsc.c
                                               sizeof(USB_CDC_UNION_FN_DSC),CS_INTERFACE,DSC_FN_UNION,CDC_COMM_INTF_ID,CDC_DATA_INTF_ID, C:\Cdc\autofiles\usbdsc.c
                                               sizeof(USB_CDC_CALL_MGT_FN_DSC),CS_INTERFACE,DSC_FN_CALL_MGT,0x00,CDC_DATA_INTF_ID, C:\Cdc\autofiles\usbdsc.c
                                                                                                                            C:\Cdc\autofiles\usbdsc.c
                                               /* Endpoint Descriptor */                                                    C:\Cdc\autofiles\usbdsc.c
                                               sizeof(USB_EP_DSC),DSC_EP,_EP02_IN,_INT,CDC_INT_EP_SIZE,0x02,                C:\Cdc\autofiles\usbdsc.c
                                                                                                                            C:\Cdc\autofiles\usbdsc.c
                                               /* Interface Descriptor */                                                   C:\Cdc\autofiles\usbdsc.c
                                               sizeof(USB_INTF_DSC),   // Size of this descriptor in bytes                  C:\Cdc\autofiles\usbdsc.c
                                               DSC_INTF,               // INTERFACE descriptor type                         C:\Cdc\autofiles\usbdsc.c
                                               1,                      // Interface Number                                  C:\Cdc\autofiles\usbdsc.c
                                               0,                      // Alternate Setting Number                          C:\Cdc\autofiles\usbdsc.c
                                               2,                      // Number of endpoints in this intf                  C:\Cdc\autofiles\usbdsc.c
                                               DATA_INTF,              // Class code                                        C:\Cdc\autofiles\usbdsc.c
                                               0,                      // Subclass code                                     C:\Cdc\autofiles\usbdsc.c
                                               NO_PROTOCOL,            // Protocol code                                     C:\Cdc\autofiles\usbdsc.c
                                               0,                      // Interface string index                            C:\Cdc\autofiles\usbdsc.c
                                                                                                                            C:\Cdc\autofiles\usbdsc.c
                                               /* Endpoint Descriptors */                                                   C:\Cdc\autofiles\usbdsc.c
                                               sizeof(USB_EP_DSC),DSC_EP,_EP03_OUT,_BULK,CDC_BULK_OUT_EP_SIZE,0x00,         C:\Cdc\autofiles\usbdsc.c
                                               sizeof(USB_EP_DSC),DSC_EP,_EP03_IN,_BULK,CDC_BULK_IN_EP_SIZE,0x00            C:\Cdc\autofiles\usbdsc.c
                                           };                                                                               C:\Cdc\autofiles\usbdsc.c
                                                                                                                            C:\Cdc\autofiles\usbdsc.c
                                           rom struct{byte bLength;byte bDscType;word string[1];}sd000={                    C:\Cdc\autofiles\usbdsc.c
                                           sizeof(sd000),DSC_STR,0x0409};                                                   C:\Cdc\autofiles\usbdsc.c
                                                                                                                            C:\Cdc\autofiles\usbdsc.c
                                           rom struct{byte bLength;byte bDscType;word string[25];}sd001={                   C:\Cdc\autofiles\usbdsc.c
                                           sizeof(sd001),DSC_STR,                                                           C:\Cdc\autofiles\usbdsc.c
                                           'M','i','c','r','o','c','h','i','p',' ',                                         C:\Cdc\autofiles\usbdsc.c
                                           'T','e','c','h','n','o','l','o','g','y',' ','I','n','c','.'};                    C:\Cdc\autofiles\usbdsc.c
                                                                                                                            C:\Cdc\autofiles\usbdsc.c
                                           rom struct{byte bLength;byte bDscType;word string[25];}sd002={                   C:\Cdc\autofiles\usbdsc.c
                                           sizeof(sd002),DSC_STR,                                                           C:\Cdc\autofiles\usbdsc.c
                                           'C','D','C',' ','R','S','-','2','3','2',' ',                                     C:\Cdc\autofiles\usbdsc.c
                                           'E','m','u','l','a','t','i','o','n',' ','D','e','m','o'};                        C:\Cdc\autofiles\usbdsc.c
                                                                                                                            C:\Cdc\autofiles\usbdsc.c
                                           rom const unsigned char *rom USB_CD_Ptr[]={&cfg01,&cfg01};                       C:\Cdc\autofiles\usbdsc.c
                                           rom const unsigned char *rom USB_SD_Ptr[]={&sd000,&sd001,&sd002};                C:\Cdc\autofiles\usbdsc.c
                                                                                                                            C:\Cdc\autofiles\usbdsc.c
                                           rom pFunc ClassReqHandler[1]=                                                    C:\Cdc\autofiles\usbdsc.c
                                           {                                                                                C:\Cdc\autofiles\usbdsc.c
                                               &USBCheckCDCRequest                                                          C:\Cdc\autofiles\usbdsc.c
                                           };                                                                               C:\Cdc\autofiles\usbdsc.c
                                                                                                                            C:\Cdc\autofiles\usbdsc.c
                                           #pragma code                                                                     C:\Cdc\autofiles\usbdsc.c
                                                                                                                            C:\Cdc\autofiles\usbdsc.c
                                           /** EOF usbdsc.c ****************************************************/           C:\Cdc\autofiles\usbdsc.c
                                           /*********************************************************************           C:\Cdc\system\usb\usbctrltrf\usbctrltrf.c
                                            *                                                                               C:\Cdc\system\usb\usbctrltrf\usbctrltrf.c
                                            *                Microchip USB C18 Firmware Version 1.0                         C:\Cdc\system\usb\usbctrltrf\usbctrltrf.c
                                            *                                                                               C:\Cdc\system\usb\usbctrltrf\usbctrltrf.c
                                            *********************************************************************           C:\Cdc\system\usb\usbctrltrf\usbctrltrf.c
                                            * FileName:        usbctrltrf.c                                                 C:\Cdc\system\usb\usbctrltrf\usbctrltrf.c
                                            * Dependencies:    See INCLUDES section below                                   C:\Cdc\system\usb\usbctrltrf\usbctrltrf.c
                                            * Processor:       PIC18                                                        C:\Cdc\system\usb\usbctrltrf\usbctrltrf.c
                                            * Compiler:        C18 2.30.01+                                                 C:\Cdc\system\usb\usbctrltrf\usbctrltrf.c
                                            * Company:         Microchip Technology, Inc.                                   C:\Cdc\system\usb\usbctrltrf\usbctrltrf.c
                                            *                                                                               C:\Cdc\system\usb\usbctrltrf\usbctrltrf.c
                                            * Software License Agreement                                                    C:\Cdc\system\usb\usbctrltrf\usbctrltrf.c
                                            *                                                                               C:\Cdc\system\usb\usbctrltrf\usbctrltrf.c
                                            * The software supplied herewith by Microchip Technology Incorporated           C:\Cdc\system\usb\usbctrltrf\usbctrltrf.c
                                            * (the “Company”) for its PICmicro® Microcontroller is intended and             C:\Cdc\system\usb\usbctrltrf\usbctrltrf.c
                                            * supplied to you, the Company’s customer, for use solely and                   C:\Cdc\system\usb\usbctrltrf\usbctrltrf.c
                                            * exclusively on Microchip PICmicro Microcontroller products. The               C:\Cdc\system\usb\usbctrltrf\usbctrltrf.c
                                            * software is owned by the Company and/or its supplier, and is                  C:\Cdc\system\usb\usbctrltrf\usbctrltrf.c
                                            * protected under applicable copyright laws. All rights are reserved.           C:\Cdc\system\usb\usbctrltrf\usbctrltrf.c
                                            * Any use in violation of the foregoing restrictions may subject the            C:\Cdc\system\usb\usbctrltrf\usbctrltrf.c
                                            * user to criminal sanctions under applicable laws, as well as to               C:\Cdc\system\usb\usbctrltrf\usbctrltrf.c
                                            * civil liability for the breach of the terms and conditions of this            C:\Cdc\system\usb\usbctrltrf\usbctrltrf.c
                                            * license.                                                                      C:\Cdc\system\usb\usbctrltrf\usbctrltrf.c
                                            *                                                                               C:\Cdc\system\usb\usbctrltrf\usbctrltrf.c
                                            * THIS SOFTWARE IS PROVIDED IN AN “AS IS” CONDITION. NO WARRANTIES,             C:\Cdc\system\usb\usbctrltrf\usbctrltrf.c
                                            * WHETHER EXPRESS, IMPLIED OR STATUTORY, INCLUDING, BUT NOT LIMITED             C:\Cdc\system\usb\usbctrltrf\usbctrltrf.c
                                            * TO, IMPLIED WARRANTIES OF MERCHANTABILITY AND FITNESS FOR A                   C:\Cdc\system\usb\usbctrltrf\usbctrltrf.c
                                            * PARTICULAR PURPOSE APPLY TO THIS SOFTWARE. THE COMPANY SHALL NOT,             C:\Cdc\system\usb\usbctrltrf\usbctrltrf.c
                                            * IN ANY CIRCUMSTANCES, BE LIABLE FOR SPECIAL, INCIDENTAL OR                    C:\Cdc\system\usb\usbctrltrf\usbctrltrf.c
                                            * CONSEQUENTIAL DAMAGES, FOR ANY REASON WHATSOEVER.                             C:\Cdc\system\usb\usbctrltrf\usbctrltrf.c
                                            *                                                                               C:\Cdc\system\usb\usbctrltrf\usbctrltrf.c
                                            * Author               Date        Comment                                      C:\Cdc\system\usb\usbctrltrf\usbctrltrf.c
                                            *~~~~~~~~~~~~~~~~~~~~~~~~~~~~~~~~~~~~~~~~~~~~~~~~~~~~~~~~~~~~~~~~~~~~           C:\Cdc\system\usb\usbctrltrf\usbctrltrf.c
                                            * Rawin Rojvanit       11/19/04    Original.                                    C:\Cdc\system\usb\usbctrltrf\usbctrltrf.c
                                            ********************************************************************/           C:\Cdc\system\usb\usbctrltrf\usbctrltrf.c
                                                                                                                            C:\Cdc\system\usb\usbctrltrf\usbctrltrf.c
                                           /** I N C L U D E S **********************************************************/  C:\Cdc\system\usb\usbctrltrf\usbctrltrf.c
                                           #include <p18cxxx.h>                                                             C:\Cdc\system\usb\usbctrltrf\usbctrltrf.c
                                           #include "system\typedefs.h"                                                     C:\Cdc\system\usb\usbctrltrf\usbctrltrf.c
                                           #include "system\usb\usb.h"                                                      C:\Cdc\system\usb\usbctrltrf\usbctrltrf.c
                                                                                                                            C:\Cdc\system\usb\usbctrltrf\usbctrltrf.c
                                           /** V A R I A B L E S ********************************************************/  C:\Cdc\system\usb\usbctrltrf\usbctrltrf.c
                                           #pragma udata                                                                    C:\Cdc\system\usb\usbctrltrf\usbctrltrf.c
                                           byte ctrl_trf_state;                // Control Transfer State                    C:\Cdc\system\usb\usbctrltrf\usbctrltrf.c
                                           byte ctrl_trf_session_owner;        // Current transfer session owner            C:\Cdc\system\usb\usbctrltrf\usbctrltrf.c
                                                                                                                            C:\Cdc\system\usb\usbctrltrf\usbctrltrf.c
                                           POINTER pSrc;                       // Data source pointer                       C:\Cdc\system\usb\usbctrltrf\usbctrltrf.c
                                           POINTER pDst;                       // Data destination pointer                  C:\Cdc\system\usb\usbctrltrf\usbctrltrf.c
                                           WORD wCount;                        // Data counter                              C:\Cdc\system\usb\usbctrltrf\usbctrltrf.c
                                                                                                                            C:\Cdc\system\usb\usbctrltrf\usbctrltrf.c
                                           /** P R I V A T E  P R O T O T Y P E S ***************************************/  C:\Cdc\system\usb\usbctrltrf\usbctrltrf.c
                                           void USBCtrlTrfSetupHandler(void);                                               C:\Cdc\system\usb\usbctrltrf\usbctrltrf.c
                                           void USBCtrlTrfOutHandler(void);                                                 C:\Cdc\system\usb\usbctrltrf\usbctrltrf.c
                                           void USBCtrlTrfInHandler(void);                                                  C:\Cdc\system\usb\usbctrltrf\usbctrltrf.c
                                                                                                                            C:\Cdc\system\usb\usbctrltrf\usbctrltrf.c
                                           /** D E C L A R A T I O N S **************************************************/  C:\Cdc\system\usb\usbctrltrf\usbctrltrf.c
                                           #pragma code                                                                     C:\Cdc\system\usb\usbctrltrf\usbctrltrf.c
                                           /******************************************************************************  C:\Cdc\system\usb\usbctrltrf\usbctrltrf.c
                                            * Function:        void USBCtrlEPService(void)                                  C:\Cdc\system\usb\usbctrltrf\usbctrltrf.c
                                            *                                                                               C:\Cdc\system\usb\usbctrltrf\usbctrltrf.c
                                            * PreCondition:    USTAT is loaded with a valid endpoint address.               C:\Cdc\system\usb\usbctrltrf\usbctrltrf.c
                                            *                                                                               C:\Cdc\system\usb\usbctrltrf\usbctrltrf.c
                                            * Input:           None                                                         C:\Cdc\system\usb\usbctrltrf\usbctrltrf.c
                                            *                                                                               C:\Cdc\system\usb\usbctrltrf\usbctrltrf.c
                                            * Output:          None                                                         C:\Cdc\system\usb\usbctrltrf\usbctrltrf.c
                                            *                                                                               C:\Cdc\system\usb\usbctrltrf\usbctrltrf.c
                                            * Side Effects:    None                                                         C:\Cdc\system\usb\usbctrltrf\usbctrltrf.c
                                            *                                                                               C:\Cdc\system\usb\usbctrltrf\usbctrltrf.c
                                            * Overview:        USBCtrlEPService checks for three transaction types that     C:\Cdc\system\usb\usbctrltrf\usbctrltrf.c
                                            *                  it knows how to service and services them:                   C:\Cdc\system\usb\usbctrltrf\usbctrltrf.c
                                            *                  1. EP0 SETUP                                                 C:\Cdc\system\usb\usbctrltrf\usbctrltrf.c
                                            *                  2. EP0 OUT                                                   C:\Cdc\system\usb\usbctrltrf\usbctrltrf.c
                                            *                  3. EP0 IN                                                    C:\Cdc\system\usb\usbctrltrf\usbctrltrf.c
                                            *                  It ignores all other types (i.e. EP1, EP2, etc.)             C:\Cdc\system\usb\usbctrltrf\usbctrltrf.c
                                            *                                                                               C:\Cdc\system\usb\usbctrltrf\usbctrltrf.c
                                            * Note:            None                                                         C:\Cdc\system\usb\usbctrltrf\usbctrltrf.c
                                            *****************************************************************************/  C:\Cdc\system\usb\usbctrltrf\usbctrltrf.c
                                           void USBCtrlEPService(void)                                                      C:\Cdc\system\usb\usbctrltrf\usbctrltrf.c
                                           {                                                                                C:\Cdc\system\usb\usbctrltrf\usbctrltrf.c
000eba   506c     MOVF      0x6c,0x0,0x0       if(USTAT == EP00_OUT)                                                        C:\Cdc\system\usb\usbctrltrf\usbctrltrf.c
000ebc   e002     BZ        0xec2                                                                                           
000ebe   0e00     MOVLW     0x0                                                                                             
000ec0   d001     BRA       0xec4                                                                                           
000ec2   0e01     MOVLW     0x1                                                                                             
000ec4   0900     IORLW     0x0                                                                                             
000ec6   e00b     BZ        0xede                                                                                           
                                               {                                                                            C:\Cdc\system\usb\usbctrltrf\usbctrltrf.c
000ec8   0104     MOVLB     0x4                    if(ep0Bo.Stat.PID == SETUP_TOKEN)           // EP0 SETUP                 C:\Cdc\system\usb\usbctrltrf\usbctrltrf.c
000eca   5100     MOVF      0x0,0x0,0x1                                                                                     
000ecc   0b3c     ANDLW     0x3c                                                                                            
000ece   42e8     RRNCF     0xe8,0x1,0x0                                                                                    
000ed0   42e8     RRNCF     0xe8,0x1,0x0                                                                                    
000ed2   080d     SUBLW     0xd                                                                                             
000ed4   e102     BNZ       0xeda                                                                                           
000ed6   d80c     RCALL     0xef0                      USBCtrlTrfSetupHandler();                                            C:\Cdc\system\usb\usbctrltrf\usbctrltrf.c
000ed8   d001     BRA       0xedc                  else                                        // EP0 OUT                   C:\Cdc\system\usb\usbctrltrf\usbctrltrf.c
000eda   d840     RCALL     0xf5c                      USBCtrlTrfOutHandler();                                              C:\Cdc\system\usb\usbctrltrf\usbctrltrf.c
                                               }                                                                            C:\Cdc\system\usb\usbctrltrf\usbctrltrf.c
000edc   d008     BRA       0xeee              else if(USTAT == EP00_IN)                       // EP0 IN                    C:\Cdc\system\usb\usbctrltrf\usbctrltrf.c
000ede   506c     MOVF      0x6c,0x0,0x0                                                                                    
000ee0   e002     BZ        0xee6                                                                                           
000ee2   0e00     MOVLW     0x0                                                                                             
000ee4   d001     BRA       0xee8                                                                                           
000ee6   0e01     MOVLW     0x1                                                                                             
000ee8   0904     IORLW     0x4                                                                                             
000eea   e001     BZ        0xeee                                                                                           
000eec   d847     RCALL     0xf7c                  USBCtrlTrfInHandler();                                                   C:\Cdc\system\usb\usbctrltrf\usbctrltrf.c
                                                                                                                            C:\Cdc\system\usb\usbctrltrf\usbctrltrf.c
000eee   0012     RETURN    0x0            }//end USBCtrlEPService                                                          C:\Cdc\system\usb\usbctrltrf\usbctrltrf.c
                                                                                                                            C:\Cdc\system\usb\usbctrltrf\usbctrltrf.c
                                           /******************************************************************************  C:\Cdc\system\usb\usbctrltrf\usbctrltrf.c
                                            * Function:        void USBCtrlTrfSetupHandler(void)                            C:\Cdc\system\usb\usbctrltrf\usbctrltrf.c
                                            *                                                                               C:\Cdc\system\usb\usbctrltrf\usbctrltrf.c
                                            * PreCondition:    SetupPkt buffer is loaded with valid USB Setup Data          C:\Cdc\system\usb\usbctrltrf\usbctrltrf.c
                                            *                                                                               C:\Cdc\system\usb\usbctrltrf\usbctrltrf.c
                                            * Input:           None                                                         C:\Cdc\system\usb\usbctrltrf\usbctrltrf.c
                                            *                                                                               C:\Cdc\system\usb\usbctrltrf\usbctrltrf.c
                                            * Output:          None                                                         C:\Cdc\system\usb\usbctrltrf\usbctrltrf.c
                                            *                                                                               C:\Cdc\system\usb\usbctrltrf\usbctrltrf.c
                                            * Side Effects:    None                                                         C:\Cdc\system\usb\usbctrltrf\usbctrltrf.c
                                            *                                                                               C:\Cdc\system\usb\usbctrltrf\usbctrltrf.c
                                            * Overview:        This routine is a task dispatcher and has 3 stages.          C:\Cdc\system\usb\usbctrltrf\usbctrltrf.c
                                            *                  1. It initializes the control transfer state machine.        C:\Cdc\system\usb\usbctrltrf\usbctrltrf.c
                                            *                  2. It calls on each of the module that may know how to       C:\Cdc\system\usb\usbctrltrf\usbctrltrf.c
                                            *                     service the Setup Request from the host.                  C:\Cdc\system\usb\usbctrltrf\usbctrltrf.c
                                            *                     Module Example: USB9, HID, CDC, MSD, ...                  C:\Cdc\system\usb\usbctrltrf\usbctrltrf.c
                                            *                     As new classes are added, ClassReqHandler table in        C:\Cdc\system\usb\usbctrltrf\usbctrltrf.c
                                            *                     usbdsc.c should be updated to call all available          C:\Cdc\system\usb\usbctrltrf\usbctrltrf.c
                                            *                     class handlers.                                           C:\Cdc\system\usb\usbctrltrf\usbctrltrf.c
                                            *                  3. Once each of the modules has had a chance to check if     C:\Cdc\system\usb\usbctrltrf\usbctrltrf.c
                                            *                     it is responsible for servicing the request, stage 3      C:\Cdc\system\usb\usbctrltrf\usbctrltrf.c
                                            *                     then checks direction of the transfer to determine how    C:\Cdc\system\usb\usbctrltrf\usbctrltrf.c
                                            *                     to prepare EP0 for the control transfer.                  C:\Cdc\system\usb\usbctrltrf\usbctrltrf.c
                                            *                     Refer to USBCtrlEPServiceComplete() for more details.     C:\Cdc\system\usb\usbctrltrf\usbctrltrf.c
                                            *                                                                               C:\Cdc\system\usb\usbctrltrf\usbctrltrf.c
                                            * Note:            Microchip USB Firmware has three different states for        C:\Cdc\system\usb\usbctrltrf\usbctrltrf.c
                                            *                  the control transfer state machine:                          C:\Cdc\system\usb\usbctrltrf\usbctrltrf.c
                                            *                  1. WAIT_SETUP                                                C:\Cdc\system\usb\usbctrltrf\usbctrltrf.c
                                            *                  2. CTRL_TRF_TX                                               C:\Cdc\system\usb\usbctrltrf\usbctrltrf.c
                                            *                  3. CTRL_TRF_RX                                               C:\Cdc\system\usb\usbctrltrf\usbctrltrf.c
                                            *                  Refer to firmware manual to find out how one state           C:\Cdc\system\usb\usbctrltrf\usbctrltrf.c
                                            *                  is transitioned to another.                                  C:\Cdc\system\usb\usbctrltrf\usbctrltrf.c
                                            *                                                                               C:\Cdc\system\usb\usbctrltrf\usbctrltrf.c
                                            *                  A Control Transfer is composed of many USB transactions.     C:\Cdc\system\usb\usbctrltrf\usbctrltrf.c
                                            *                  When transferring data over multiple transactions,           C:\Cdc\system\usb\usbctrltrf\usbctrltrf.c
                                            *                  it is important to keep track of data source, data           C:\Cdc\system\usb\usbctrltrf\usbctrltrf.c
                                            *                  destination, and data count. These three parameters are      C:\Cdc\system\usb\usbctrltrf\usbctrltrf.c
                                            *                  stored in pSrc,pDst, and wCount. A flag is used to           C:\Cdc\system\usb\usbctrltrf\usbctrltrf.c
                                            *                  note if the data source is from ROM or RAM.                  C:\Cdc\system\usb\usbctrltrf\usbctrltrf.c
                                            *                                                                               C:\Cdc\system\usb\usbctrltrf\usbctrltrf.c
                                            *****************************************************************************/  C:\Cdc\system\usb\usbctrltrf\usbctrltrf.c
000ef0   cfd9     MOVFF     0xfd9,0xfe6    void USBCtrlTrfSetupHandler(void)                                                C:\Cdc\system\usb\usbctrltrf\usbctrltrf.c
000ef2   ffe6                                                                                                               
000ef4   cfe1     MOVFF     0xfe1,0xfd9                                                                                     
000ef6   ffd9                                                                                                               
000ef8   52e6     MOVF      0xe6,0x1,0x0                                                                                    
                                           {                                                                                C:\Cdc\system\usb\usbctrltrf\usbctrltrf.c
                                               byte i;                                                                      C:\Cdc\system\usb\usbctrltrf\usbctrltrf.c
                                                                                                                            C:\Cdc\system\usb\usbctrltrf\usbctrltrf.c
                                               /* Stage 1 */                                                                C:\Cdc\system\usb\usbctrltrf\usbctrltrf.c
000efa   0100     MOVLB     0x0                ctrl_trf_state = WAIT_SETUP;                                                 C:\Cdc\system\usb\usbctrltrf\usbctrltrf.c
000efc   6ba5     CLRF      0xa5,0x1                                                                                        
000efe   6ba6     CLRF      0xa6,0x1           ctrl_trf_session_owner = MUID_NULL;     // Set owner to NULL                 C:\Cdc\system\usb\usbctrltrf\usbctrltrf.c
000f00   6bab     CLRF      0xab,0x1           wCount._word = 0;                                                            C:\Cdc\system\usb\usbctrltrf\usbctrltrf.c
000f02   6bac     CLRF      0xac,0x1                                                                                        
                                                                                                                            C:\Cdc\system\usb\usbctrltrf\usbctrltrf.c
                                               /* Stage 2 */                                                                C:\Cdc\system\usb\usbctrltrf\usbctrltrf.c
000f04   ecd9     CALL      0xbb2,0x0          USBCheckStdRequest();                   // See system\usb9\usb9.c            C:\Cdc\system\usb\usbctrltrf\usbctrltrf.c
000f06   f005                                                                                                               
                                                                                                                            C:\Cdc\system\usb\usbctrltrf\usbctrltrf.c
000f08   6adf     CLRF      0xdf,0x0           for(i=0;i < (sizeof(ClassReqHandler)/sizeof(pFunc));i++)                     C:\Cdc\system\usb\usbctrltrf\usbctrltrf.c
000f0a   50df     MOVF      0xdf,0x0,0x0                                                                                    
000f0c   6e02     MOVWF     0x2,0x0                                                                                         
000f0e   6a03     CLRF      0x3,0x0                                                                                         
000f10   0e01     MOVLW     0x1                                                                                             
000f12   5c02     SUBWF     0x2,0x0,0x0                                                                                     
000f14   0e00     MOVLW     0x0                                                                                             
000f16   5803     SUBWFB    0x3,0x0,0x0                                                                                     
000f18   e21b     BC        0xf50                                                                                           
000f4c   2adf     INCF      0xdf,0x1,0x0                                                                                    
000f4e   d7dd     BRA       0xf0a                                                                                           
                                               {                                                                            C:\Cdc\system\usb\usbctrltrf\usbctrltrf.c
000f1a   0100     MOVLB     0x0                    if(ctrl_trf_session_owner != MUID_NULL)break;                            C:\Cdc\system\usb\usbctrltrf\usbctrltrf.c
000f1c   51a6     MOVF      0xa6,0x0,0x1                                                                                    
000f1e   e001     BZ        0xf22                                                                                           
000f20   d017     BRA       0xf50                                                                                           
000f22   6af7     CLRF      0xf7,0x0               ClassReqHandler[i]();               // See autofiles\usbdsc.c            C:\Cdc\system\usb\usbctrltrf\usbctrltrf.c
000f24   34df     RLCF      0xdf,0x0,0x0                                                                                    
000f26   0bfe     ANDLW     0xfe                                                                                            
000f28   36f7     RLCF      0xf7,0x1,0x0                                                                                    
000f2a   6ef6     MOVWF     0xf6,0x0                                                                                        
000f2c   0ea3     MOVLW     0xa3                                                                                            
000f2e   26f6     ADDWF     0xf6,0x1,0x0                                                                                    
000f30   0e15     MOVLW     0x15                                                                                            
000f32   22f7     ADDWFC    0xf7,0x1,0x0                                                                                    
000f34   0009     TBLRDPOSTINC                                                                                              
000f36   cff5     MOVFF     0xff5,0x2                                                                                       
000f38   f002                                                                                                               
000f3a   0008     TBLRD                                                                                                     
000f3c   cff5     MOVFF     0xff5,0x3                                                                                       
000f3e   f003                                                                                                               
000f40   d004     BRA       0xf4a                                                                                           
000f42   c003     MOVFF     0x3,0xffa                                                                                       
000f44   fffa                                                                                                               
000f46   5002     MOVF      0x2,0x0,0x0                                                                                     
000f48   6ef9     MOVWF     0xf9,0x0                                                                                        
000f4a   dffb     RCALL     0xf42                                                                                           
                                               }//end while                                                                 C:\Cdc\system\usb\usbctrltrf\usbctrltrf.c
                                                                                                                            C:\Cdc\system\usb\usbctrltrf\usbctrltrf.c
                                               /* Stage 3 */                                                                C:\Cdc\system\usb\usbctrltrf\usbctrltrf.c
000f50   d8dd     RCALL     0x110c             USBCtrlEPServiceComplete();                                                  C:\Cdc\system\usb\usbctrltrf\usbctrltrf.c
                                                                                                                            C:\Cdc\system\usb\usbctrltrf\usbctrltrf.c
000f52   52e5     MOVF      0xe5,0x1,0x0   }//end USBCtrlTrfSetupHandler                                                    C:\Cdc\system\usb\usbctrltrf\usbctrltrf.c
000f54   52e5     MOVF      0xe5,0x1,0x0                                                                                    
000f56   cfe7     MOVFF     0xfe7,0xfd9                                                                                     
000f58   ffd9                                                                                                               
000f5a   0012     RETURN    0x0                                                                                             
                                                                                                                            C:\Cdc\system\usb\usbctrltrf\usbctrltrf.c
                                           /******************************************************************************  C:\Cdc\system\usb\usbctrltrf\usbctrltrf.c
                                            * Function:        void USBCtrlTrfOutHandler(void)                              C:\Cdc\system\usb\usbctrltrf\usbctrltrf.c
                                            *                                                                               C:\Cdc\system\usb\usbctrltrf\usbctrltrf.c
                                            * PreCondition:    None                                                         C:\Cdc\system\usb\usbctrltrf\usbctrltrf.c
                                            *                                                                               C:\Cdc\system\usb\usbctrltrf\usbctrltrf.c
                                            * Input:           None                                                         C:\Cdc\system\usb\usbctrltrf\usbctrltrf.c
                                            *                                                                               C:\Cdc\system\usb\usbctrltrf\usbctrltrf.c
                                            * Output:          None                                                         C:\Cdc\system\usb\usbctrltrf\usbctrltrf.c
                                            *                                                                               C:\Cdc\system\usb\usbctrltrf\usbctrltrf.c
                                            * Side Effects:    None                                                         C:\Cdc\system\usb\usbctrltrf\usbctrltrf.c
                                            *                                                                               C:\Cdc\system\usb\usbctrltrf\usbctrltrf.c
                                            * Overview:        This routine handles an OUT transaction according to         C:\Cdc\system\usb\usbctrltrf\usbctrltrf.c
                                            *                  which control transfer state is currently active.            C:\Cdc\system\usb\usbctrltrf\usbctrltrf.c
                                            *                                                                               C:\Cdc\system\usb\usbctrltrf\usbctrltrf.c
                                            * Note:            Note that if the the control transfer was from               C:\Cdc\system\usb\usbctrltrf\usbctrltrf.c
                                            *                  host to device, the session owner should be notified         C:\Cdc\system\usb\usbctrltrf\usbctrltrf.c
                                            *                  at the end of each OUT transaction to service the            C:\Cdc\system\usb\usbctrltrf\usbctrltrf.c
                                            *                  received data.                                               C:\Cdc\system\usb\usbctrltrf\usbctrltrf.c
                                            *                                                                               C:\Cdc\system\usb\usbctrltrf\usbctrltrf.c
                                            *****************************************************************************/  C:\Cdc\system\usb\usbctrltrf\usbctrltrf.c
                                           void USBCtrlTrfOutHandler(void)                                                  C:\Cdc\system\usb\usbctrltrf\usbctrltrf.c
                                           {                                                                                C:\Cdc\system\usb\usbctrltrf\usbctrltrf.c
000f5c   0e02     MOVLW     0x2                if(ctrl_trf_state == CTRL_TRF_RX)                                            C:\Cdc\system\usb\usbctrltrf\usbctrltrf.c
000f5e   0100     MOVLB     0x0                                                                                             
000f60   5da5     SUBWF     0xa5,0x0,0x1                                                                                    
000f62   e10a     BNZ       0xf78                                                                                           
                                               {                                                                            C:\Cdc\system\usb\usbctrltrf\usbctrltrf.c
000f64   d896     RCALL     0x1092                 USBCtrlTrfRxService();                                                   C:\Cdc\system\usb\usbctrltrf\usbctrltrf.c
                                                                                                                            C:\Cdc\system\usb\usbctrltrf\usbctrltrf.c
                                                   /*                                                                       C:\Cdc\system\usb\usbctrltrf\usbctrltrf.c
                                                    * Don't have to worry about overwriting _KEEP bit                       C:\Cdc\system\usb\usbctrltrf\usbctrltrf.c
                                                    * because if _KEEP was set, TRNIF would not have been                   C:\Cdc\system\usb\usbctrltrf\usbctrltrf.c
                                                    * generated in the first place.                                         C:\Cdc\system\usb\usbctrltrf\usbctrltrf.c
                                                    */                                                                      C:\Cdc\system\usb\usbctrltrf\usbctrltrf.c
000f66   0104     MOVLB     0x4                    if(ep0Bo.Stat.DTS == 0)                                                  C:\Cdc\system\usb\usbctrltrf\usbctrltrf.c
000f68   bd00     BTFSC     0x0,0x6,0x1                                                                                     
000f6a   d003     BRA       0xf72                                                                                           
000f6c   0ec8     MOVLW     0xc8                       ep0Bo.Stat._byte = _USIE|_DAT1|_DTSEN;                               C:\Cdc\system\usb\usbctrltrf\usbctrltrf.c
000f6e   6f00     MOVWF     0x0,0x1                                                                                         
000f70   d002     BRA       0xf76                  else                                                                     C:\Cdc\system\usb\usbctrltrf\usbctrltrf.c
000f72   0e88     MOVLW     0x88                       ep0Bo.Stat._byte = _USIE|_DAT0|_DTSEN;                               C:\Cdc\system\usb\usbctrltrf\usbctrltrf.c
000f74   6f00     MOVWF     0x0,0x1                                                                                         
                                               }                                                                            C:\Cdc\system\usb\usbctrltrf\usbctrltrf.c
000f76   d001     BRA       0xf7a              else    // CTRL_TRF_TX                                                       C:\Cdc\system\usb\usbctrltrf\usbctrltrf.c
000f78   d90f     RCALL     0x1198                 USBPrepareForNextSetupTrf();                                             C:\Cdc\system\usb\usbctrltrf\usbctrltrf.c
                                                                                                                            C:\Cdc\system\usb\usbctrltrf\usbctrltrf.c
000f7a   0012     RETURN    0x0            }//end USBCtrlTrfOutHandler                                                      C:\Cdc\system\usb\usbctrltrf\usbctrltrf.c
                                                                                                                            C:\Cdc\system\usb\usbctrltrf\usbctrltrf.c
                                           /******************************************************************************  C:\Cdc\system\usb\usbctrltrf\usbctrltrf.c
                                            * Function:        void USBCtrlTrfInHandler(void)                               C:\Cdc\system\usb\usbctrltrf\usbctrltrf.c
                                            *                                                                               C:\Cdc\system\usb\usbctrltrf\usbctrltrf.c
                                            * PreCondition:    None                                                         C:\Cdc\system\usb\usbctrltrf\usbctrltrf.c
                                            *                                                                               C:\Cdc\system\usb\usbctrltrf\usbctrltrf.c
                                            * Input:           None                                                         C:\Cdc\system\usb\usbctrltrf\usbctrltrf.c
                                            *                                                                               C:\Cdc\system\usb\usbctrltrf\usbctrltrf.c
                                            * Output:          None                                                         C:\Cdc\system\usb\usbctrltrf\usbctrltrf.c
                                            *                                                                               C:\Cdc\system\usb\usbctrltrf\usbctrltrf.c
                                            * Side Effects:    None                                                         C:\Cdc\system\usb\usbctrltrf\usbctrltrf.c
                                            *                                                                               C:\Cdc\system\usb\usbctrltrf\usbctrltrf.c
                                            * Overview:        This routine handles an IN transaction according to          C:\Cdc\system\usb\usbctrltrf\usbctrltrf.c
                                            *                  which control transfer state is currently active.            C:\Cdc\system\usb\usbctrltrf\usbctrltrf.c
                                            *                                                                               C:\Cdc\system\usb\usbctrltrf\usbctrltrf.c
                                            *                                                                               C:\Cdc\system\usb\usbctrltrf\usbctrltrf.c
                                            * Note:            A Set Address Request must not change the acutal address     C:\Cdc\system\usb\usbctrltrf\usbctrltrf.c
                                            *                  of the device until the completion of the control            C:\Cdc\system\usb\usbctrltrf\usbctrltrf.c
                                            *                  transfer. The end of the control transfer for Set Address    C:\Cdc\system\usb\usbctrltrf\usbctrltrf.c
                                            *                  Request is an IN transaction. Therefore it is necessary      C:\Cdc\system\usb\usbctrltrf\usbctrltrf.c
                                            *                  to service this unique situation when the condition is       C:\Cdc\system\usb\usbctrltrf\usbctrltrf.c
                                            *                  right. Macro mUSBCheckAdrPendingState is defined in          C:\Cdc\system\usb\usbctrltrf\usbctrltrf.c
                                            *                  usb9.h and its function is to specifically service this      C:\Cdc\system\usb\usbctrltrf\usbctrltrf.c
                                            *                  event.                                                       C:\Cdc\system\usb\usbctrltrf\usbctrltrf.c
                                            *****************************************************************************/  C:\Cdc\system\usb\usbctrltrf\usbctrltrf.c
                                           void USBCtrlTrfInHandler(void)                                                   C:\Cdc\system\usb\usbctrltrf\usbctrltrf.c
                                           {                                                                                C:\Cdc\system\usb\usbctrltrf\usbctrltrf.c
000f7c   0e04     MOVLW     0x4                mUSBCheckAdrPendingState();         // Must check if in ADR_PENDING_STATE    C:\Cdc\system\usb\usbctrltrf\usbctrltrf.c
000f7e   0100     MOVLB     0x0                                                                                             
000f80   5dad     SUBWF     0xad,0x0,0x1                                                                                    
000f82   e10a     BNZ       0xf98                                                                                           
000f84   c422     MOVFF     0x422,0xf6e                                                                                     
000f86   ff6e                                                                                                               
000f88   506e     MOVF      0x6e,0x0,0x0                                                                                    
000f8a   0800     SUBLW     0x0                                                                                             
000f8c   e203     BC        0xf94                                                                                           
000f8e   0e05     MOVLW     0x5                                                                                             
000f90   6fad     MOVWF     0xad,0x1                                                                                        
000f92   d002     BRA       0xf98                                                                                           
000f94   0e03     MOVLW     0x3                                                                                             
000f96   6fad     MOVWF     0xad,0x1                                                                                        
                                                                                                                            C:\Cdc\system\usb\usbctrltrf\usbctrltrf.c
000f98   0100     MOVLB     0x0                if(ctrl_trf_state == CTRL_TRF_TX)                                            C:\Cdc\system\usb\usbctrltrf\usbctrltrf.c
000f9a   05a5     DECF      0xa5,0x0,0x1                                                                                    
000f9c   e10a     BNZ       0xfb2                                                                                           
                                               {                                                                            C:\Cdc\system\usb\usbctrltrf\usbctrltrf.c
000f9e   d80b     RCALL     0xfb6                  USBCtrlTrfTxService();                                                   C:\Cdc\system\usb\usbctrltrf\usbctrltrf.c
                                                                                                                            C:\Cdc\system\usb\usbctrltrf\usbctrltrf.c
000fa0   0104     MOVLB     0x4                    if(ep0Bi.Stat.DTS == 0)                                                  C:\Cdc\system\usb\usbctrltrf\usbctrltrf.c
000fa2   bd04     BTFSC     0x4,0x6,0x1                                                                                     
000fa4   d003     BRA       0xfac                                                                                           
000fa6   0ec8     MOVLW     0xc8                       ep0Bi.Stat._byte = _USIE|_DAT1|_DTSEN;                               C:\Cdc\system\usb\usbctrltrf\usbctrltrf.c
000fa8   6f04     MOVWF     0x4,0x1                                                                                         
000faa   d002     BRA       0xfb0                  else                                                                     C:\Cdc\system\usb\usbctrltrf\usbctrltrf.c
000fac   0e88     MOVLW     0x88                       ep0Bi.Stat._byte = _USIE|_DAT0|_DTSEN;                               C:\Cdc\system\usb\usbctrltrf\usbctrltrf.c
000fae   6f04     MOVWF     0x4,0x1                                                                                         
                                               }                                                                            C:\Cdc\system\usb\usbctrltrf\usbctrltrf.c
000fb0   d001     BRA       0xfb4              else // CTRL_TRF_RX                                                          C:\Cdc\system\usb\usbctrltrf\usbctrltrf.c
000fb2   d8f2     RCALL     0x1198                 USBPrepareForNextSetupTrf();                                             C:\Cdc\system\usb\usbctrltrf\usbctrltrf.c
                                                                                                                            C:\Cdc\system\usb\usbctrltrf\usbctrltrf.c
000fb4   0012     RETURN    0x0            }//end USBCtrlTrfInHandler                                                       C:\Cdc\system\usb\usbctrltrf\usbctrltrf.c
                                                                                                                            C:\Cdc\system\usb\usbctrltrf\usbctrltrf.c
                                           /******************************************************************************  C:\Cdc\system\usb\usbctrltrf\usbctrltrf.c
                                            * Function:        void USBCtrlTrfTxService(void)                               C:\Cdc\system\usb\usbctrltrf\usbctrltrf.c
                                            *                                                                               C:\Cdc\system\usb\usbctrltrf\usbctrltrf.c
                                            * PreCondition:    pSrc, wCount, and usb_stat.ctrl_trf_mem are setup properly.  C:\Cdc\system\usb\usbctrltrf\usbctrltrf.c
                                            *                                                                               C:\Cdc\system\usb\usbctrltrf\usbctrltrf.c
                                            * Input:           None                                                         C:\Cdc\system\usb\usbctrltrf\usbctrltrf.c
                                            *                                                                               C:\Cdc\system\usb\usbctrltrf\usbctrltrf.c
                                            * Output:          None                                                         C:\Cdc\system\usb\usbctrltrf\usbctrltrf.c
                                            *                                                                               C:\Cdc\system\usb\usbctrltrf\usbctrltrf.c
                                            * Side Effects:    None                                                         C:\Cdc\system\usb\usbctrltrf\usbctrltrf.c
                                            *                                                                               C:\Cdc\system\usb\usbctrltrf\usbctrltrf.c
                                            * Overview:        This routine should be called from only two places.          C:\Cdc\system\usb\usbctrltrf\usbctrltrf.c
                                            *                  One from USBCtrlEPServiceComplete() and one from             C:\Cdc\system\usb\usbctrltrf\usbctrltrf.c
                                            *                  USBCtrlTrfInHandler(). It takes care of managing a           C:\Cdc\system\usb\usbctrltrf\usbctrltrf.c
                                            *                  transfer over multiple USB transactions.                     C:\Cdc\system\usb\usbctrltrf\usbctrltrf.c
                                            *                                                                               C:\Cdc\system\usb\usbctrltrf\usbctrltrf.c
                                            * Note:            This routine works with isochronous endpoint larger than     C:\Cdc\system\usb\usbctrltrf\usbctrltrf.c
                                            *                  256 bytes and is shown here as an example of how to deal     C:\Cdc\system\usb\usbctrltrf\usbctrltrf.c
                                            *                  with BC9 and BC8. In reality, a control endpoint can never   C:\Cdc\system\usb\usbctrltrf\usbctrltrf.c
                                            *                  be larger than 64 bytes.                                     C:\Cdc\system\usb\usbctrltrf\usbctrltrf.c
                                            *****************************************************************************/  C:\Cdc\system\usb\usbctrltrf\usbctrltrf.c
000fb6   cfd9     MOVFF     0xfd9,0xfe6    void USBCtrlTrfTxService(void)                                                   C:\Cdc\system\usb\usbctrltrf\usbctrltrf.c
000fb8   ffe6                                                                                                               
000fba   cfe1     MOVFF     0xfe1,0xfd9                                                                                     
000fbc   ffd9                                                                                                               
000fbe   0e02     MOVLW     0x2                                                                                             
000fc0   26e1     ADDWF     0xe1,0x1,0x0                                                                                    
                                           {                                                                                C:\Cdc\system\usb\usbctrltrf\usbctrltrf.c
                                               WORD byte_to_send;                                                           C:\Cdc\system\usb\usbctrltrf\usbctrltrf.c
                                                                                                                            C:\Cdc\system\usb\usbctrltrf\usbctrltrf.c
                                               /*                                                                           C:\Cdc\system\usb\usbctrltrf\usbctrltrf.c
                                                * First, have to figure out how many byte of data to send.                  C:\Cdc\system\usb\usbctrltrf\usbctrltrf.c
                                                */                                                                          C:\Cdc\system\usb\usbctrltrf\usbctrltrf.c
000fc2   0100     MOVLB     0x0                if(wCount._word < EP0_BUFF_SIZE)                                             C:\Cdc\system\usb\usbctrltrf\usbctrltrf.c
000fc4   0e08     MOVLW     0x8                                                                                             
000fc6   5dab     SUBWF     0xab,0x0,0x1                                                                                    
000fc8   0e00     MOVLW     0x0                                                                                             
000fca   59ac     SUBWFB    0xac,0x0,0x1                                                                                    
000fcc   e205     BC        0xfd8                                                                                           
000fce   c0ab     MOVFF     0xab,0xfde             byte_to_send._word = wCount._word;                                       C:\Cdc\system\usb\usbctrltrf\usbctrltrf.c
000fd0   ffde                                                                                                               
000fd2   c0ac     MOVFF     0xac,0xfdd                                                                                      
000fd4   ffdd                                                                                                               
000fd6   d003     BRA       0xfde              else                                                                         C:\Cdc\system\usb\usbctrltrf\usbctrltrf.c
000fd8   0e08     MOVLW     0x8                    byte_to_send._word = EP0_BUFF_SIZE;                                      C:\Cdc\system\usb\usbctrltrf\usbctrltrf.c
000fda   6ede     MOVWF     0xde,0x0                                                                                        
000fdc   6add     CLRF      0xdd,0x0                                                                                        
                                                                                                                            C:\Cdc\system\usb\usbctrltrf\usbctrltrf.c
                                               /*                                                                           C:\Cdc\system\usb\usbctrltrf\usbctrltrf.c
                                                * Next, load the number of bytes to send to BC9..0 in buffer descriptor     C:\Cdc\system\usb\usbctrltrf\usbctrltrf.c
                                                */                                                                          C:\Cdc\system\usb\usbctrltrf\usbctrltrf.c
000fde   0104     MOVLB     0x4                ep0Bi.Stat.BC9 = 0;                                                          C:\Cdc\system\usb\usbctrltrf\usbctrltrf.c
000fe0   9304     BCF       0x4,0x1,0x1                                                                                     
000fe2   9104     BCF       0x4,0x0,0x1        ep0Bi.Stat.BC8 = 0;                                                          C:\Cdc\system\usb\usbctrltrf\usbctrltrf.c
000fe4   0e01     MOVLW     0x1                ep0Bi.Stat._byte |= MSB(byte_to_send);                                       C:\Cdc\system\usb\usbctrltrf\usbctrltrf.c
000fe6   50db     MOVF      0xdb,0x0,0x0                                                                                    
000fe8   1304     IORWF     0x4,0x1,0x1                                                                                     
000fea   cfdf     MOVFF     0xfdf,0x405        ep0Bi.Cnt = LSB(byte_to_send);                                               C:\Cdc\system\usb\usbctrltrf\usbctrltrf.c
000fec   f405                                                                                                               
                                                                                                                            C:\Cdc\system\usb\usbctrltrf\usbctrltrf.c
                                               /*                                                                           C:\Cdc\system\usb\usbctrltrf\usbctrltrf.c
                                                * Subtract the number of bytes just about to be sent from the total.        C:\Cdc\system\usb\usbctrltrf\usbctrltrf.c
                                                */                                                                          C:\Cdc\system\usb\usbctrltrf\usbctrltrf.c
000fee   0e00     MOVLW     0x0                wCount._word = wCount._word - byte_to_send._word;                            C:\Cdc\system\usb\usbctrltrf\usbctrltrf.c
000ff0   50db     MOVF      0xdb,0x0,0x0                                                                                    
000ff2   0100     MOVLB     0x0                                                                                             
000ff4   5fab     SUBWF     0xab,0x1,0x1                                                                                    
000ff6   0e01     MOVLW     0x1                                                                                             
000ff8   50db     MOVF      0xdb,0x0,0x0                                                                                    
000ffa   5bac     SUBWFB    0xac,0x1,0x1                                                                                    
                                                                                                                            C:\Cdc\system\usb\usbctrltrf\usbctrltrf.c
000ffc   0e28     MOVLW     0x28               pDst.bRam = (byte*)&CtrlTrfData;        // Set destination pointer           C:\Cdc\system\usb\usbctrltrf\usbctrltrf.c
000ffe   6fa9     MOVWF     0xa9,0x1                                                                                        
001000   0e04     MOVLW     0x4                                                                                             
001002   6faa     MOVWF     0xaa,0x1                                                                                        
                                                                                                                            C:\Cdc\system\usb\usbctrltrf\usbctrltrf.c
001004   0100     MOVLB     0x0                if(usb_stat.ctrl_trf_mem == _ROM)       // Determine type of memory source   C:\Cdc\system\usb\usbctrltrf\usbctrltrf.c
001006   a3ae     BTFSS     0xae,0x1,0x1                                                                                    
001008   d01e     BRA       0x1046                                                                                          
                                               {                                                                            C:\Cdc\system\usb\usbctrltrf\usbctrltrf.c
00100a   cfd9     MOVFF     0xfd9,0xfe9            while(byte_to_send._word)                                                C:\Cdc\system\usb\usbctrltrf\usbctrltrf.c
00100c   ffe9                                                                                                               
00100e   cfda     MOVFF     0xfda,0xfea                                                                                     
001010   ffea                                                                                                               
001012   50ee     MOVF      0xee,0x0,0x0                                                                                    
001014   10ed     IORWF     0xed,0x0,0x0                                                                                    
001016   e016     BZ        0x1044                                                                                          
001042   d7e3     BRA       0x100a                                                                                          
                                                   {                                                                        C:\Cdc\system\usb\usbctrltrf\usbctrltrf.c
001018   c0a7     MOVFF     0xa7,0xff6                 *pDst.bRam = *pSrc.bRom;                                             C:\Cdc\system\usb\usbctrltrf\usbctrltrf.c
00101a   fff6                                                                                                               
00101c   c0a8     MOVFF     0xa8,0xff7                                                                                      
00101e   fff7                                                                                                               
001020   0008     TBLRD                                                                                                     
001022   50f5     MOVF      0xf5,0x0,0x0                                                                                    
001024   c0a9     MOVFF     0xa9,0xfe9                                                                                      
001026   ffe9                                                                                                               
001028   c0aa     MOVFF     0xaa,0xfea                                                                                      
00102a   ffea                                                                                                               
00102c   6eef     MOVWF     0xef,0x0                                                                                        
00102e   0100     MOVLB     0x0                        pDst.bRam++;                                                         C:\Cdc\system\usb\usbctrltrf\usbctrltrf.c
001030   2ba9     INCF      0xa9,0x1,0x1                                                                                    
001032   0e00     MOVLW     0x0                                                                                             
001034   23aa     ADDWFC    0xaa,0x1,0x1                                                                                    
001036   2ba7     INCF      0xa7,0x1,0x1               pSrc.bRom++;                                                         C:\Cdc\system\usb\usbctrltrf\usbctrltrf.c
001038   23a8     ADDWFC    0xa8,0x1,0x1                                                                                    
00103a   06df     DECF      0xdf,0x1,0x0               byte_to_send._word--;                                                C:\Cdc\system\usb\usbctrltrf\usbctrltrf.c
00103c   0e01     MOVLW     0x1                                                                                             
00103e   e201     BC        0x1042                                                                                          
001040   06db     DECF      0xdb,0x1,0x0                                                                                    
                                                   }//end while(byte_to_send._word)                                         C:\Cdc\system\usb\usbctrltrf\usbctrltrf.c
                                               }                                                                            C:\Cdc\system\usb\usbctrltrf\usbctrltrf.c
001044   d01c     BRA       0x107e             else // RAM                                                                  C:\Cdc\system\usb\usbctrltrf\usbctrltrf.c
                                               {                                                                            C:\Cdc\system\usb\usbctrltrf\usbctrltrf.c
001046   cfd9     MOVFF     0xfd9,0xfe9            while(byte_to_send._word)                                                C:\Cdc\system\usb\usbctrltrf\usbctrltrf.c
001048   ffe9                                                                                                               
00104a   cfda     MOVFF     0xfda,0xfea                                                                                     
00104c   ffea                                                                                                               
00104e   50ee     MOVF      0xee,0x0,0x0                                                                                    
001050   10ed     IORWF     0xed,0x0,0x0                                                                                    
001052   e015     BZ        0x107e                                                                                          
00107c   d7e4     BRA       0x1046                                                                                          
                                                   {                                                                        C:\Cdc\system\usb\usbctrltrf\usbctrltrf.c
001054   c0a7     MOVFF     0xa7,0xfe9                 *pDst.bRam = *pSrc.bRam;                                             C:\Cdc\system\usb\usbctrltrf\usbctrltrf.c
001056   ffe9                                                                                                               
001058   c0a8     MOVFF     0xa8,0xfea                                                                                      
00105a   ffea                                                                                                               
00105c   50ef     MOVF      0xef,0x0,0x0                                                                                    
00105e   c0a9     MOVFF     0xa9,0xfe9                                                                                      
001060   ffe9                                                                                                               
001062   c0aa     MOVFF     0xaa,0xfea                                                                                      
001064   ffea                                                                                                               
001066   6eef     MOVWF     0xef,0x0                                                                                        
001068   0100     MOVLB     0x0                        pDst.bRam++;                                                         C:\Cdc\system\usb\usbctrltrf\usbctrltrf.c
00106a   2ba9     INCF      0xa9,0x1,0x1                                                                                    
00106c   0e00     MOVLW     0x0                                                                                             
00106e   23aa     ADDWFC    0xaa,0x1,0x1                                                                                    
001070   2ba7     INCF      0xa7,0x1,0x1               pSrc.bRam++;                                                         C:\Cdc\system\usb\usbctrltrf\usbctrltrf.c
001072   23a8     ADDWFC    0xa8,0x1,0x1                                                                                    
001074   06df     DECF      0xdf,0x1,0x0               byte_to_send._word--;                                                C:\Cdc\system\usb\usbctrltrf\usbctrltrf.c
001076   0e01     MOVLW     0x1                                                                                             
001078   e201     BC        0x107c                                                                                          
00107a   06db     DECF      0xdb,0x1,0x0                                                                                    
                                                   }//end while(byte_to_send._word)                                         C:\Cdc\system\usb\usbctrltrf\usbctrltrf.c
                                               }//end if(usb_stat.ctrl_trf_mem == _ROM)                                     C:\Cdc\system\usb\usbctrltrf\usbctrltrf.c
                                                                                                                            C:\Cdc\system\usb\usbctrltrf\usbctrltrf.c
00107e   0e02     MOVLW     0x2            }//end USBCtrlTrfTxService                                                       C:\Cdc\system\usb\usbctrltrf\usbctrltrf.c
001080   5ce1     SUBWF     0xe1,0x0,0x0                                                                                    
001082   e202     BC        0x1088                                                                                          
001084   6ae1     CLRF      0xe1,0x0                                                                                        
001086   52e5     MOVF      0xe5,0x1,0x0                                                                                    
001088   6ee1     MOVWF     0xe1,0x0                                                                                        
00108a   52e5     MOVF      0xe5,0x1,0x0                                                                                    
00108c   cfe7     MOVFF     0xfe7,0xfd9                                                                                     
00108e   ffd9                                                                                                               
001090   0012     RETURN    0x0                                                                                             
                                                                                                                            C:\Cdc\system\usb\usbctrltrf\usbctrltrf.c
                                           /******************************************************************************  C:\Cdc\system\usb\usbctrltrf\usbctrltrf.c
                                            * Function:        void USBCtrlTrfRxService(void)                               C:\Cdc\system\usb\usbctrltrf\usbctrltrf.c
                                            *                                                                               C:\Cdc\system\usb\usbctrltrf\usbctrltrf.c
                                            * PreCondition:    pDst and wCount are setup properly.                          C:\Cdc\system\usb\usbctrltrf\usbctrltrf.c
                                            *                  pSrc is always &CtrlTrfData                                  C:\Cdc\system\usb\usbctrltrf\usbctrltrf.c
                                            *                  usb_stat.ctrl_trf_mem is always _RAM.                        C:\Cdc\system\usb\usbctrltrf\usbctrltrf.c
                                            *                  wCount should be set to 0 at the start of each control       C:\Cdc\system\usb\usbctrltrf\usbctrltrf.c
                                            *                  transfer.                                                    C:\Cdc\system\usb\usbctrltrf\usbctrltrf.c
                                            *                                                                               C:\Cdc\system\usb\usbctrltrf\usbctrltrf.c
                                            * Input:           None                                                         C:\Cdc\system\usb\usbctrltrf\usbctrltrf.c
                                            *                                                                               C:\Cdc\system\usb\usbctrltrf\usbctrltrf.c
                                            * Output:          None                                                         C:\Cdc\system\usb\usbctrltrf\usbctrltrf.c
                                            *                                                                               C:\Cdc\system\usb\usbctrltrf\usbctrltrf.c
                                            * Side Effects:    None                                                         C:\Cdc\system\usb\usbctrltrf\usbctrltrf.c
                                            *                                                                               C:\Cdc\system\usb\usbctrltrf\usbctrltrf.c
                                            * Overview:        *** This routine is only partially complete. Check for       C:\Cdc\system\usb\usbctrltrf\usbctrltrf.c
                                            *                  new version of the firmware.                                 C:\Cdc\system\usb\usbctrltrf\usbctrltrf.c
                                            *                                                                               C:\Cdc\system\usb\usbctrltrf\usbctrltrf.c
                                            * Note:            None                                                         C:\Cdc\system\usb\usbctrltrf\usbctrltrf.c
                                            *****************************************************************************/  C:\Cdc\system\usb\usbctrltrf\usbctrltrf.c
001092   cfd9     MOVFF     0xfd9,0xfe6    void USBCtrlTrfRxService(void)                                                   C:\Cdc\system\usb\usbctrltrf\usbctrltrf.c
001094   ffe6                                                                                                               
001096   cfe1     MOVFF     0xfe1,0xfd9                                                                                     
001098   ffd9                                                                                                               
00109a   0e02     MOVLW     0x2                                                                                             
00109c   26e1     ADDWF     0xe1,0x1,0x0                                                                                    
                                           {                                                                                C:\Cdc\system\usb\usbctrltrf\usbctrltrf.c
                                               WORD byte_to_read;                                                           C:\Cdc\system\usb\usbctrltrf\usbctrltrf.c
                                                                                                                            C:\Cdc\system\usb\usbctrltrf\usbctrltrf.c
00109e   0e03     MOVLW     0x3                MSB(byte_to_read) = 0x03 & ep0Bo.Stat._byte;    // Filter out last 2 bits    C:\Cdc\system\usb\usbctrltrf\usbctrltrf.c
0010a0   0104     MOVLB     0x4                                                                                             
0010a2   1500     ANDWF     0x0,0x0,0x1                                                                                     
0010a4   6ee7     MOVWF     0xe7,0x0                                                                                        
0010a6   0e01     MOVLW     0x1                                                                                             
0010a8   cfe7     MOVFF     0xfe7,0xfdb                                                                                     
0010aa   ffdb                                                                                                               
0010ac   c401     MOVFF     0x401,0xfdf        LSB(byte_to_read) = ep0Bo.Cnt;                                               C:\Cdc\system\usb\usbctrltrf\usbctrltrf.c
0010ae   ffdf                                                                                                               
                                                                                                                            C:\Cdc\system\usb\usbctrltrf\usbctrltrf.c
                                               /*                                                                           C:\Cdc\system\usb\usbctrltrf\usbctrltrf.c
                                                * Accumulate total number of bytes read                                     C:\Cdc\system\usb\usbctrltrf\usbctrltrf.c
                                                */                                                                          C:\Cdc\system\usb\usbctrltrf\usbctrltrf.c
0010b0   50de     MOVF      0xde,0x0,0x0       wCount._word = wCount._word + byte_to_read._word;                            C:\Cdc\system\usb\usbctrltrf\usbctrltrf.c
0010b2   0100     MOVLB     0x0                                                                                             
0010b4   27ab     ADDWF     0xab,0x1,0x1                                                                                    
0010b6   50dd     MOVF      0xdd,0x0,0x0                                                                                    
0010b8   23ac     ADDWFC    0xac,0x1,0x1                                                                                    
                                                                                                                            C:\Cdc\system\usb\usbctrltrf\usbctrltrf.c
0010ba   0e28     MOVLW     0x28               pSrc.bRam = (byte*)&CtrlTrfData;                                             C:\Cdc\system\usb\usbctrltrf\usbctrltrf.c
0010bc   6fa7     MOVWF     0xa7,0x1                                                                                        
0010be   0e04     MOVLW     0x4                                                                                             
0010c0   6fa8     MOVWF     0xa8,0x1                                                                                        
                                                                                                                            C:\Cdc\system\usb\usbctrltrf\usbctrltrf.c
0010c2   cfd9     MOVFF     0xfd9,0xfe9        while(byte_to_read._word)                                                    C:\Cdc\system\usb\usbctrltrf\usbctrltrf.c
0010c4   ffe9                                                                                                               
0010c6   cfda     MOVFF     0xfda,0xfea                                                                                     
0010c8   ffea                                                                                                               
0010ca   50ee     MOVF      0xee,0x0,0x0                                                                                    
0010cc   10ed     IORWF     0xed,0x0,0x0                                                                                    
0010ce   e014     BZ        0x10f8                                                                                          
0010f6   d7e5     BRA       0x10c2                                                                                          
                                               {                                                                            C:\Cdc\system\usb\usbctrltrf\usbctrltrf.c
0010d0   c0a7     MOVFF     0xa7,0xfe9             *pDst.bRam = *pSrc.bRam;                                                 C:\Cdc\system\usb\usbctrltrf\usbctrltrf.c
0010d2   ffe9                                                                                                               
0010d4   c0a8     MOVFF     0xa8,0xfea                                                                                      
0010d6   ffea                                                                                                               
0010d8   50ef     MOVF      0xef,0x0,0x0                                                                                    
0010da   c0a9     MOVFF     0xa9,0xfe9                                                                                      
0010dc   ffe9                                                                                                               
0010de   c0aa     MOVFF     0xaa,0xfea                                                                                      
0010e0   ffea                                                                                                               
0010e2   6eef     MOVWF     0xef,0x0                                                                                        
0010e4   2ba9     INCF      0xa9,0x1,0x1           pDst.bRam++;                                                             C:\Cdc\system\usb\usbctrltrf\usbctrltrf.c
0010e6   0e00     MOVLW     0x0                                                                                             
0010e8   23aa     ADDWFC    0xaa,0x1,0x1                                                                                    
0010ea   2ba7     INCF      0xa7,0x1,0x1           pSrc.bRam++;                                                             C:\Cdc\system\usb\usbctrltrf\usbctrltrf.c
0010ec   23a8     ADDWFC    0xa8,0x1,0x1                                                                                    
0010ee   06df     DECF      0xdf,0x1,0x0           byte_to_read._word--;                                                    C:\Cdc\system\usb\usbctrltrf\usbctrltrf.c
0010f0   0e01     MOVLW     0x1                                                                                             
0010f2   e201     BC        0x10f6                                                                                          
0010f4   06db     DECF      0xdb,0x1,0x0                                                                                    
                                               }//end while(byte_to_read._word)                                             C:\Cdc\system\usb\usbctrltrf\usbctrltrf.c
                                                                                                                            C:\Cdc\system\usb\usbctrltrf\usbctrltrf.c
0010f8   0e02     MOVLW     0x2            }//end USBCtrlTrfRxService                                                       C:\Cdc\system\usb\usbctrltrf\usbctrltrf.c
0010fa   5ce1     SUBWF     0xe1,0x0,0x0                                                                                    
0010fc   e202     BC        0x1102                                                                                          
0010fe   6ae1     CLRF      0xe1,0x0                                                                                        
001100   52e5     MOVF      0xe5,0x1,0x0                                                                                    
001102   6ee1     MOVWF     0xe1,0x0                                                                                        
001104   52e5     MOVF      0xe5,0x1,0x0                                                                                    
001106   cfe7     MOVFF     0xfe7,0xfd9                                                                                     
001108   ffd9                                                                                                               
00110a   0012     RETURN    0x0                                                                                             
                                                                                                                            C:\Cdc\system\usb\usbctrltrf\usbctrltrf.c
                                           /******************************************************************************  C:\Cdc\system\usb\usbctrltrf\usbctrltrf.c
                                            * Function:        void USBCtrlEPServiceComplete(void)                          C:\Cdc\system\usb\usbctrltrf\usbctrltrf.c
                                            *                                                                               C:\Cdc\system\usb\usbctrltrf\usbctrltrf.c
                                            * PreCondition:    None                                                         C:\Cdc\system\usb\usbctrltrf\usbctrltrf.c
                                            *                                                                               C:\Cdc\system\usb\usbctrltrf\usbctrltrf.c
                                            * Input:           None                                                         C:\Cdc\system\usb\usbctrltrf\usbctrltrf.c
                                            *                                                                               C:\Cdc\system\usb\usbctrltrf\usbctrltrf.c
                                            * Output:          None                                                         C:\Cdc\system\usb\usbctrltrf\usbctrltrf.c
                                            *                                                                               C:\Cdc\system\usb\usbctrltrf\usbctrltrf.c
                                            * Side Effects:    None                                                         C:\Cdc\system\usb\usbctrltrf\usbctrltrf.c
                                            *                                                                               C:\Cdc\system\usb\usbctrltrf\usbctrltrf.c
                                            * Overview:        This routine wrap up the ramaining tasks in servicing        C:\Cdc\system\usb\usbctrltrf\usbctrltrf.c
                                            *                  a Setup Request. Its main task is to set the endpoint        C:\Cdc\system\usb\usbctrltrf\usbctrltrf.c
                                            *                  controls appropriately for a given situation. See code       C:\Cdc\system\usb\usbctrltrf\usbctrltrf.c
                                            *                  below.                                                       C:\Cdc\system\usb\usbctrltrf\usbctrltrf.c
                                            *                  There are three main scenarios:                              C:\Cdc\system\usb\usbctrltrf\usbctrltrf.c
                                            *                  a) There was no handler for the Request, in this case        C:\Cdc\system\usb\usbctrltrf\usbctrltrf.c
                                            *                     a STALL should be sent out.                               C:\Cdc\system\usb\usbctrltrf\usbctrltrf.c
                                            *                  b) The host has requested a read control transfer,           C:\Cdc\system\usb\usbctrltrf\usbctrltrf.c
                                            *                     endpoints are required to be setup in a specific way.     C:\Cdc\system\usb\usbctrltrf\usbctrltrf.c
                                            *                  c) The host has requested a write control transfer, or       C:\Cdc\system\usb\usbctrltrf\usbctrltrf.c
                                            *                     a control data stage is not required, endpoints are       C:\Cdc\system\usb\usbctrltrf\usbctrltrf.c
                                            *                     required to be setup in a specific way.                   C:\Cdc\system\usb\usbctrltrf\usbctrltrf.c
                                            *                                                                               C:\Cdc\system\usb\usbctrltrf\usbctrltrf.c
                                            *                  Packet processing is resumed by clearing PKTDIS bit.         C:\Cdc\system\usb\usbctrltrf\usbctrltrf.c
                                            *                                                                               C:\Cdc\system\usb\usbctrltrf\usbctrltrf.c
                                            * Note:            None                                                         C:\Cdc\system\usb\usbctrltrf\usbctrltrf.c
                                            *****************************************************************************/  C:\Cdc\system\usb\usbctrltrf\usbctrltrf.c
                                           void USBCtrlEPServiceComplete(void)                                              C:\Cdc\system\usb\usbctrltrf\usbctrltrf.c
                                           {                                                                                C:\Cdc\system\usb\usbctrltrf\usbctrltrf.c
00110c   0100     MOVLB     0x0                if(ctrl_trf_session_owner == MUID_NULL)                                      C:\Cdc\system\usb\usbctrltrf\usbctrltrf.c
00110e   51a6     MOVF      0xa6,0x0,0x1                                                                                    
001110   e10c     BNZ       0x112a                                                                                          
                                               {                                                                            C:\Cdc\system\usb\usbctrltrf\usbctrltrf.c
                                                   /*                                                                       C:\Cdc\system\usb\usbctrltrf\usbctrltrf.c
                                                    * If no one knows how to service this request then stall.               C:\Cdc\system\usb\usbctrltrf\usbctrltrf.c
                                                    * Must also prepare EP0 to receive the next SETUP transaction.          C:\Cdc\system\usb\usbctrltrf\usbctrltrf.c
                                                    */                                                                      C:\Cdc\system\usb\usbctrltrf\usbctrltrf.c
001112   0104     MOVLB     0x4                    ep0Bo.Cnt = EP0_BUFF_SIZE;                                               C:\Cdc\system\usb\usbctrltrf\usbctrltrf.c
001114   0e08     MOVLW     0x8                                                                                             
001116   6f01     MOVWF     0x1,0x1                                                                                         
001118   0e20     MOVLW     0x20                   ep0Bo.ADR = (byte*)&SetupPkt;                                            C:\Cdc\system\usb\usbctrltrf\usbctrltrf.c
00111a   6f02     MOVWF     0x2,0x1                                                                                         
00111c   0e04     MOVLW     0x4                                                                                             
00111e   6f03     MOVWF     0x3,0x1                                                                                         
                                                                                                                            C:\Cdc\system\usb\usbctrltrf\usbctrltrf.c
001120   0e84     MOVLW     0x84                   ep0Bo.Stat._byte = _USIE|_BSTALL;                                        C:\Cdc\system\usb\usbctrltrf\usbctrltrf.c
001122   6f00     MOVWF     0x0,0x1                                                                                         
001124   0104     MOVLB     0x4                    ep0Bi.Stat._byte = _USIE|_BSTALL;                                        C:\Cdc\system\usb\usbctrltrf\usbctrltrf.c
001126   6f04     MOVWF     0x4,0x1                                                                                         
                                               }                                                                            C:\Cdc\system\usb\usbctrltrf\usbctrltrf.c
001128   d035     BRA       0x1194             else    // A module has claimed ownership of the control transfer session.   C:\Cdc\system\usb\usbctrltrf\usbctrltrf.c
                                               {                                                                            C:\Cdc\system\usb\usbctrltrf\usbctrltrf.c
00112a   0104     MOVLB     0x4                    if(SetupPkt.DataDir == DEV_TO_HOST)                                      C:\Cdc\system\usb\usbctrltrf\usbctrltrf.c
00112c   af20     BTFSS     0x20,0x7,0x1                                                                                    
00112e   d022     BRA       0x1174                                                                                          
                                                   {                                                                        C:\Cdc\system\usb\usbctrltrf\usbctrltrf.c
001130   0100     MOVLB     0x0                        if(SetupPkt.wLength < wCount._word)                                  C:\Cdc\system\usb\usbctrltrf\usbctrltrf.c
001132   51ab     MOVF      0xab,0x0,0x1                                                                                    
001134   0104     MOVLB     0x4                                                                                             
001136   5d26     SUBWF     0x26,0x0,0x1                                                                                    
001138   0100     MOVLB     0x0                                                                                             
00113a   51ac     MOVF      0xac,0x0,0x1                                                                                    
00113c   0104     MOVLB     0x4                                                                                             
00113e   5927     SUBWFB    0x27,0x0,0x1                                                                                    
001140   e204     BC        0x114a                                                                                          
001142   c426     MOVFF     0x426,0xab                     wCount._word = SetupPkt.wLength;                                 C:\Cdc\system\usb\usbctrltrf\usbctrltrf.c
001144   f0ab                                                                                                               
001146   c427     MOVFF     0x427,0xac                                                                                      
001148   f0ac                                                                                                               
00114a   df35     RCALL     0xfb6                      USBCtrlTrfTxService();                                               C:\Cdc\system\usb\usbctrltrf\usbctrltrf.c
00114c   0100     MOVLB     0x0                        ctrl_trf_state = CTRL_TRF_TX;                                        C:\Cdc\system\usb\usbctrltrf\usbctrltrf.c
00114e   0e01     MOVLW     0x1                                                                                             
001150   6fa5     MOVWF     0xa5,0x1                                                                                        
                                                       /*                                                                   C:\Cdc\system\usb\usbctrltrf\usbctrltrf.c
                                                        * Control Read:                                                     C:\Cdc\system\usb\usbctrltrf\usbctrltrf.c
                                                        * <SETUP[0]><IN[1]><IN[0]>...<OUT[1]> | <SETUP[0]>                  C:\Cdc\system\usb\usbctrltrf\usbctrltrf.c
                                                        * 1. Prepare OUT EP to respond to early termination                 C:\Cdc\system\usb\usbctrltrf\usbctrltrf.c
                                                        *                                                                   C:\Cdc\system\usb\usbctrltrf\usbctrltrf.c
                                                        * NOTE:                                                             C:\Cdc\system\usb\usbctrltrf\usbctrltrf.c
                                                        * If something went wrong during the control transfer,              C:\Cdc\system\usb\usbctrltrf\usbctrltrf.c
                                                        * the last status stage may not be sent by the host.                C:\Cdc\system\usb\usbctrltrf\usbctrltrf.c
                                                        * When this happens, two different things could happen              C:\Cdc\system\usb\usbctrltrf\usbctrltrf.c
                                                        * depending on the host.                                            C:\Cdc\system\usb\usbctrltrf\usbctrltrf.c
                                                        * a) The host could send out a RESET.                               C:\Cdc\system\usb\usbctrltrf\usbctrltrf.c
                                                        * b) The host could send out a new SETUP transaction                C:\Cdc\system\usb\usbctrltrf\usbctrltrf.c
                                                        *    without sending a RESET first.                                 C:\Cdc\system\usb\usbctrltrf\usbctrltrf.c
                                                        * To properly handle case (b), the OUT EP must be setup             C:\Cdc\system\usb\usbctrltrf\usbctrltrf.c
                                                        * to receive either a zero length OUT transaction, or a             C:\Cdc\system\usb\usbctrltrf\usbctrltrf.c
                                                        * new SETUP transaction.                                            C:\Cdc\system\usb\usbctrltrf\usbctrltrf.c
                                                        *                                                                   C:\Cdc\system\usb\usbctrltrf\usbctrltrf.c
                                                        * Since the SETUP transaction requires the DTS bit to be            C:\Cdc\system\usb\usbctrltrf\usbctrltrf.c
                                                        * DAT0 while the zero length OUT status requires the DTS            C:\Cdc\system\usb\usbctrltrf\usbctrltrf.c
                                                        * bit to be DAT1, the DTS bit check by the hardware should          C:\Cdc\system\usb\usbctrltrf\usbctrltrf.c
                                                        * be disabled. This way the SIE could accept either of              C:\Cdc\system\usb\usbctrltrf\usbctrltrf.c
                                                        * the two transactions.                                             C:\Cdc\system\usb\usbctrltrf\usbctrltrf.c
                                                        *                                                                   C:\Cdc\system\usb\usbctrltrf\usbctrltrf.c
                                                        * Furthermore, the Cnt byte should be set to prepare for            C:\Cdc\system\usb\usbctrltrf\usbctrltrf.c
                                                        * the SETUP data (8-byte or more), and the buffer address           C:\Cdc\system\usb\usbctrltrf\usbctrltrf.c
                                                        * should be pointed to SetupPkt.                                    C:\Cdc\system\usb\usbctrltrf\usbctrltrf.c
                                                        */                                                                  C:\Cdc\system\usb\usbctrltrf\usbctrltrf.c
001152   0104     MOVLB     0x4                        ep0Bo.Cnt = EP0_BUFF_SIZE;                                           C:\Cdc\system\usb\usbctrltrf\usbctrltrf.c
001154   0e08     MOVLW     0x8                                                                                             
001156   6f01     MOVWF     0x1,0x1                                                                                         
001158   0e20     MOVLW     0x20                       ep0Bo.ADR = (byte*)&SetupPkt;                                        C:\Cdc\system\usb\usbctrltrf\usbctrltrf.c
00115a   6f02     MOVWF     0x2,0x1                                                                                         
00115c   0e04     MOVLW     0x4                                                                                             
00115e   6f03     MOVWF     0x3,0x1                                                                                         
001160   0e80     MOVLW     0x80                       ep0Bo.Stat._byte = _USIE;           // Note: DTSEN is 0!             C:\Cdc\system\usb\usbctrltrf\usbctrltrf.c
001162   6f00     MOVWF     0x0,0x1                                                                                         
                                                                                                                            C:\Cdc\system\usb\usbctrltrf\usbctrltrf.c
                                                       /*                                                                   C:\Cdc\system\usb\usbctrltrf\usbctrltrf.c
                                                        * 2. Prepare IN EP to transfer data, Cnt should have                C:\Cdc\system\usb\usbctrltrf\usbctrltrf.c
                                                        *    been initialized by responsible request owner.                 C:\Cdc\system\usb\usbctrltrf\usbctrltrf.c
                                                        */                                                                  C:\Cdc\system\usb\usbctrltrf\usbctrltrf.c
001164   0104     MOVLB     0x4                        ep0Bi.ADR = (byte*)&CtrlTrfData;                                     C:\Cdc\system\usb\usbctrltrf\usbctrltrf.c
001166   0e28     MOVLW     0x28                                                                                            
001168   6f06     MOVWF     0x6,0x1                                                                                         
00116a   0e04     MOVLW     0x4                                                                                             
00116c   6f07     MOVWF     0x7,0x1                                                                                         
00116e   0ec8     MOVLW     0xc8                       ep0Bi.Stat._byte = _USIE|_DAT1|_DTSEN;                               C:\Cdc\system\usb\usbctrltrf\usbctrltrf.c
001170   6f04     MOVWF     0x4,0x1                                                                                         
                                                   }                                                                        C:\Cdc\system\usb\usbctrltrf\usbctrltrf.c
001172   d010     BRA       0x1194                 else    // (SetupPkt.DataDir == HOST_TO_DEV)                             C:\Cdc\system\usb\usbctrltrf\usbctrltrf.c
                                                   {                                                                        C:\Cdc\system\usb\usbctrltrf\usbctrltrf.c
001174   0100     MOVLB     0x0                        ctrl_trf_state = CTRL_TRF_RX;                                        C:\Cdc\system\usb\usbctrltrf\usbctrltrf.c
001176   0e02     MOVLW     0x2                                                                                             
001178   6fa5     MOVWF     0xa5,0x1                                                                                        
                                                       /*                                                                   C:\Cdc\system\usb\usbctrltrf\usbctrltrf.c
                                                        * Control Write:                                                    C:\Cdc\system\usb\usbctrltrf\usbctrltrf.c
                                                        * <SETUP[0]><OUT[1]><OUT[0]>...<IN[1]> | <SETUP[0]>                 C:\Cdc\system\usb\usbctrltrf\usbctrltrf.c
                                                        *                                                                   C:\Cdc\system\usb\usbctrltrf\usbctrltrf.c
                                                        * 1. Prepare IN EP to respond to early termination                  C:\Cdc\system\usb\usbctrltrf\usbctrltrf.c
                                                        *                                                                   C:\Cdc\system\usb\usbctrltrf\usbctrltrf.c
                                                        *    This is the same as a Zero Length Packet Response              C:\Cdc\system\usb\usbctrltrf\usbctrltrf.c
                                                        *    for control transfer without a data stage                      C:\Cdc\system\usb\usbctrltrf\usbctrltrf.c
                                                        */                                                                  C:\Cdc\system\usb\usbctrltrf\usbctrltrf.c
00117a   0104     MOVLB     0x4                        ep0Bi.Cnt = 0;                                                       C:\Cdc\system\usb\usbctrltrf\usbctrltrf.c
00117c   6b05     CLRF      0x5,0x1                                                                                         
00117e   0ec8     MOVLW     0xc8                       ep0Bi.Stat._byte = _USIE|_DAT1|_DTSEN;                               C:\Cdc\system\usb\usbctrltrf\usbctrltrf.c
001180   6f04     MOVWF     0x4,0x1                                                                                         
                                                                                                                            C:\Cdc\system\usb\usbctrltrf\usbctrltrf.c
                                                       /*                                                                   C:\Cdc\system\usb\usbctrltrf\usbctrltrf.c
                                                        * 2. Prepare OUT EP to receive data.                                C:\Cdc\system\usb\usbctrltrf\usbctrltrf.c
                                                        */                                                                  C:\Cdc\system\usb\usbctrltrf\usbctrltrf.c
001182   0104     MOVLB     0x4                        ep0Bo.Cnt = EP0_BUFF_SIZE;                                           C:\Cdc\system\usb\usbctrltrf\usbctrltrf.c
001184   0e08     MOVLW     0x8                                                                                             
001186   6f01     MOVWF     0x1,0x1                                                                                         
001188   0e28     MOVLW     0x28                       ep0Bo.ADR = (byte*)&CtrlTrfData;                                     C:\Cdc\system\usb\usbctrltrf\usbctrltrf.c
00118a   6f02     MOVWF     0x2,0x1                                                                                         
00118c   0e04     MOVLW     0x4                                                                                             
00118e   6f03     MOVWF     0x3,0x1                                                                                         
001190   0ec8     MOVLW     0xc8                       ep0Bo.Stat._byte = _USIE|_DAT1|_DTSEN;                               C:\Cdc\system\usb\usbctrltrf\usbctrltrf.c
001192   6f00     MOVWF     0x0,0x1                                                                                         
                                                   }//end if(SetupPkt.DataDir == DEV_TO_HOST)                               C:\Cdc\system\usb\usbctrltrf\usbctrltrf.c
                                               }//end if(ctrl_trf_session_owner == MUID_NULL)                               C:\Cdc\system\usb\usbctrltrf\usbctrltrf.c
                                                                                                                            C:\Cdc\system\usb\usbctrltrf\usbctrltrf.c
                                               /*                                                                           C:\Cdc\system\usb\usbctrltrf\usbctrltrf.c
                                                * PKTDIS bit is set when a Setup Transaction is received.                   C:\Cdc\system\usb\usbctrltrf\usbctrltrf.c
                                                * Clear to resume packet processing.                                        C:\Cdc\system\usb\usbctrltrf\usbctrltrf.c
                                                */                                                                          C:\Cdc\system\usb\usbctrltrf\usbctrltrf.c
001194   986d     BCF       0x6d,0x4,0x0       UCONbits.PKTDIS = 0;                                                         C:\Cdc\system\usb\usbctrltrf\usbctrltrf.c
                                                                                                                            C:\Cdc\system\usb\usbctrltrf\usbctrltrf.c
001196   0012     RETURN    0x0            }//end USBCtrlEPServiceComplete                                                  C:\Cdc\system\usb\usbctrltrf\usbctrltrf.c
                                                                                                                            C:\Cdc\system\usb\usbctrltrf\usbctrltrf.c
                                           /******************************************************************************  C:\Cdc\system\usb\usbctrltrf\usbctrltrf.c
                                            * Function:        void USBPrepareForNextSetupTrf(void)                         C:\Cdc\system\usb\usbctrltrf\usbctrltrf.c
                                            *                                                                               C:\Cdc\system\usb\usbctrltrf\usbctrltrf.c
                                            * PreCondition:    None                                                         C:\Cdc\system\usb\usbctrltrf\usbctrltrf.c
                                            *                                                                               C:\Cdc\system\usb\usbctrltrf\usbctrltrf.c
                                            * Input:           None                                                         C:\Cdc\system\usb\usbctrltrf\usbctrltrf.c
                                            *                                                                               C:\Cdc\system\usb\usbctrltrf\usbctrltrf.c
                                            * Output:          None                                                         C:\Cdc\system\usb\usbctrltrf\usbctrltrf.c
                                            *                                                                               C:\Cdc\system\usb\usbctrltrf\usbctrltrf.c
                                            * Side Effects:    None                                                         C:\Cdc\system\usb\usbctrltrf\usbctrltrf.c
                                            *                                                                               C:\Cdc\system\usb\usbctrltrf\usbctrltrf.c
                                            * Overview:        The routine forces EP0 OUT to be ready for a new Setup       C:\Cdc\system\usb\usbctrltrf\usbctrltrf.c
                                            *                  transaction, and forces EP0 IN to be owned by CPU.           C:\Cdc\system\usb\usbctrltrf\usbctrltrf.c
                                            *                                                                               C:\Cdc\system\usb\usbctrltrf\usbctrltrf.c
                                            * Note:            None                                                         C:\Cdc\system\usb\usbctrltrf\usbctrltrf.c
                                            *****************************************************************************/  C:\Cdc\system\usb\usbctrltrf\usbctrltrf.c
                                           void USBPrepareForNextSetupTrf(void)                                             C:\Cdc\system\usb\usbctrltrf\usbctrltrf.c
                                           {                                                                                C:\Cdc\system\usb\usbctrltrf\usbctrltrf.c
001198   0100     MOVLB     0x0                ctrl_trf_state = WAIT_SETUP;            // See usbctrltrf.h                  C:\Cdc\system\usb\usbctrltrf\usbctrltrf.c
00119a   6ba5     CLRF      0xa5,0x1                                                                                        
00119c   0104     MOVLB     0x4                ep0Bo.Cnt = EP0_BUFF_SIZE;              // Defined in usbcfg.h               C:\Cdc\system\usb\usbctrltrf\usbctrltrf.c
00119e   0e08     MOVLW     0x8                                                                                             
0011a0   6f01     MOVWF     0x1,0x1                                                                                         
0011a2   0e20     MOVLW     0x20               ep0Bo.ADR = (byte*)&SetupPkt;                                                C:\Cdc\system\usb\usbctrltrf\usbctrltrf.c
0011a4   6f02     MOVWF     0x2,0x1                                                                                         
0011a6   0e04     MOVLW     0x4                                                                                             
0011a8   6f03     MOVWF     0x3,0x1                                                                                         
0011aa   0e88     MOVLW     0x88               ep0Bo.Stat._byte = _USIE|_DAT0|_DTSEN;  // EP0 buff dsc init, see usbmmap.h  C:\Cdc\system\usb\usbctrltrf\usbctrltrf.c
0011ac   6f00     MOVWF     0x0,0x1                                                                                         
0011ae   0104     MOVLB     0x4                ep0Bi.Stat._byte = _UCPU;               // EP0 IN buffer initialization      C:\Cdc\system\usb\usbctrltrf\usbctrltrf.c
0011b0   6b04     CLRF      0x4,0x1                                                                                         
0011b2   0012     RETURN    0x0            }//end USBPrepareForNextSetupTrf                                                 C:\Cdc\system\usb\usbctrltrf\usbctrltrf.c
                                                                                                                            C:\Cdc\system\usb\usbctrltrf\usbctrltrf.c
                                           /** EOF usbctrltrf.c *********************************************************/  C:\Cdc\system\usb\usbctrltrf\usbctrltrf.c
                                           /*********************************************************************           C:\Cdc\user\user.c
                                            *                                                                               C:\Cdc\user\user.c
                                            *                Microchip USB C18 Firmware Version 1.0                         C:\Cdc\user\user.c
                                            *                                                                               C:\Cdc\user\user.c
                                            *********************************************************************           C:\Cdc\user\user.c
                                            * FileName:        user.c                                                       C:\Cdc\user\user.c
                                            * Dependencies:    See INCLUDES section below                                   C:\Cdc\user\user.c
                                            * Processor:       PIC18                                                        C:\Cdc\user\user.c
                                            * Compiler:        C18 2.30.01+                                                 C:\Cdc\user\user.c
                                            * Company:         Microchip Technology, Inc.                                   C:\Cdc\user\user.c
                                            *                                                                               C:\Cdc\user\user.c
                                            * Software License Agreement                                                    C:\Cdc\user\user.c
                                            *                                                                               C:\Cdc\user\user.c
                                            * The software supplied herewith by Microchip Technology Incorporated           C:\Cdc\user\user.c
                                            * (the “Company”) for its PICmicro® Microcontroller is intended and             C:\Cdc\user\user.c
                                            * supplied to you, the Company’s customer, for use solely and                   C:\Cdc\user\user.c
                                            * exclusively on Microchip PICmicro Microcontroller products. The               C:\Cdc\user\user.c
                                            * software is owned by the Company and/or its supplier, and is                  C:\Cdc\user\user.c
                                            * protected under applicable copyright laws. All rights are reserved.           C:\Cdc\user\user.c
                                            * Any use in violation of the foregoing restrictions may subject the            C:\Cdc\user\user.c
                                            * user to criminal sanctions under applicable laws, as well as to               C:\Cdc\user\user.c
                                            * civil liability for the breach of the terms and conditions of this            C:\Cdc\user\user.c
                                            * license.                                                                      C:\Cdc\user\user.c
                                            *                                                                               C:\Cdc\user\user.c
                                            * THIS SOFTWARE IS PROVIDED IN AN “AS IS” CONDITION. NO WARRANTIES,             C:\Cdc\user\user.c
                                            * WHETHER EXPRESS, IMPLIED OR STATUTORY, INCLUDING, BUT NOT LIMITED             C:\Cdc\user\user.c
                                            * TO, IMPLIED WARRANTIES OF MERCHANTABILITY AND FITNESS FOR A                   C:\Cdc\user\user.c
                                            * PARTICULAR PURPOSE APPLY TO THIS SOFTWARE. THE COMPANY SHALL NOT,             C:\Cdc\user\user.c
                                            * IN ANY CIRCUMSTANCES, BE LIABLE FOR SPECIAL, INCIDENTAL OR                    C:\Cdc\user\user.c
                                            * CONSEQUENTIAL DAMAGES, FOR ANY REASON WHATSOEVER.                             C:\Cdc\user\user.c
                                            *                                                                               C:\Cdc\user\user.c
                                            * Author               Date        Comment                                      C:\Cdc\user\user.c
                                            *~~~~~~~~~~~~~~~~~~~~~~~~~~~~~~~~~~~~~~~~~~~~~~~~~~~~~~~~~~~~~~~~~~~~           C:\Cdc\user\user.c
                                            * Rawin Rojvanit       11/19/04    Original.                                    C:\Cdc\user\user.c
                                            * Stephen English		29/03/07    Modification for use in CPU Teacher              C:\Cdc\user\user.c
                                            ********************************************************************/           C:\Cdc\user\user.c
                                                                                                                            C:\Cdc\user\user.c
                                           /** I N C L U D E S **********************************************************/  C:\Cdc\user\user.c
                                           #include <p18cxxx.h>                                                             C:\Cdc\user\user.c
                                           #include "system\typedefs.h"                                                     C:\Cdc\user\user.c
                                                                                                                            C:\Cdc\user\user.c
                                           #include "system\usb\usb.h"                                                      C:\Cdc\user\user.c
                                                                                                                            C:\Cdc\user\user.c
                                           #include "io_cfg.h"             // I/O pin mapping                               C:\Cdc\user\user.c
                                           #include "user\user.h"                                                           C:\Cdc\user\user.c
                                                                                                                            C:\Cdc\user\user.c
                                           /** V A R I A B L E S ********************************************************/  C:\Cdc\user\user.c
                                                                                                                            C:\Cdc\user\user.c
                                           #define DecodeHexChar(n) (n < 65 ? n-48 : n-55)                                  C:\Cdc\user\user.c
                                                                                                                            C:\Cdc\user\user.c
                                           unsigned char just_data[32];                                                     C:\Cdc\user\user.c
                                                                                                                            C:\Cdc\user\user.c
                                           /** P R I V A T E  P R O T O T Y P E S ***************************************/  C:\Cdc\user\user.c
                                           void InitializeUSART(void);                                                      C:\Cdc\user\user.c
                                           unsigned char DecodeHex(unsigned char *buffer);                                  C:\Cdc\user\user.c
                                           void MakeHex(unsigned char *buffer, unsigned char data);                         C:\Cdc\user\user.c
                                                                                                                            C:\Cdc\user\user.c
                                           /** D E C L A R A T I O N S **************************************************/  C:\Cdc\user\user.c
                                           void UserInit(void)                                                              C:\Cdc\user\user.c
                                           {                                                                                C:\Cdc\user\user.c
                                               //PORTA                                                                      C:\Cdc\user\user.c
0011b4   94c2     BCF       0xc2,0x2,0x0   	ADCON0bits.CHS0 = 0;                                                            C:\Cdc\user\user.c
0011b6   96c2     BCF       0xc2,0x3,0x0   	ADCON0bits.CHS1 = 0;                                                            C:\Cdc\user\user.c
0011b8   98c2     BCF       0xc2,0x4,0x0   	ADCON0bits.CHS2 = 0;                                                            C:\Cdc\user\user.c
0011ba   9ac2     BCF       0xc2,0x5,0x0   	ADCON0bits.CHS3 = 0; //Select channel 0                                         C:\Cdc\user\user.c
0011bc   80c2     BSF       0xc2,0x0,0x0   	ADCON0bits.ADON = 1;                                                            C:\Cdc\user\user.c
0011be   98c1     BCF       0xc1,0x4,0x0   	ADCON1bits.VCFG0 = 0; //Use Vss & Vdd for references                            C:\Cdc\user\user.c
0011c0   9ac1     BCF       0xc1,0x5,0x0   	ADCON1bits.VCFG1 = 0;                                                           C:\Cdc\user\user.c
0011c2   86c1     BSF       0xc1,0x3,0x0   	ADCON1bits.PCFG3 = 1;                                                           C:\Cdc\user\user.c
0011c4   84c1     BSF       0xc1,0x2,0x0   	ADCON1bits.PCFG2 = 1;                                                           C:\Cdc\user\user.c
0011c6   82c1     BSF       0xc1,0x1,0x0   	ADCON1bits.PCFG1 = 1;                                                           C:\Cdc\user\user.c
0011c8   80c1     BSF       0xc1,0x0,0x0   	ADCON1bits.PCFG0 = 1; //AN0 only                                                C:\Cdc\user\user.c
0011ca   9ec0     BCF       0xc0,0x7,0x0   	ADCON2bits.ADFM = 0; //Left justified result                                    C:\Cdc\user\user.c
0011cc   8ac0     BSF       0xc0,0x5,0x0   	ADCON2bits.ACQT2 = 1;                                                           C:\Cdc\user\user.c
0011ce   98c0     BCF       0xc0,0x4,0x0   	ADCON2bits.ACQT1 = 0;                                                           C:\Cdc\user\user.c
0011d0   86c0     BSF       0xc0,0x3,0x0   	ADCON2bits.ACQT0 = 1; //A/D Acquisition time select bits. 101 = 12 Tad. Is this right? Who knows?!? C:\Cdc\user\user.c
0011d2   84c0     BSF       0xc0,0x2,0x0   	ADCON2bits.ADCS2 = 1;                                                           C:\Cdc\user\user.c
0011d4   82c0     BSF       0xc0,0x1,0x0   	ADCON2bits.ADCS1 = 1;                                                           C:\Cdc\user\user.c
0011d6   90c0     BCF       0xc0,0x0,0x0   	ADCON2bits.ADCS0 = 0; //64 Tosc - Hope this is right!                           C:\Cdc\user\user.c
                                           	                                                                                C:\Cdc\user\user.c
0011d8   6ab4     CLRF      0xb4,0x0       	CMCON = 0; //Disable Comparators                                                C:\Cdc\user\user.c
0011da   6892     SETF      0x92,0x0       	TRISA = 0xFF; //All Output                                                      C:\Cdc\user\user.c
0011dc   9c9e     BCF       0x9e,0x6,0x0   	PIR1bits.ADIF = 0;                                                              C:\Cdc\user\user.c
                                           	                                                                                C:\Cdc\user\user.c
                                           	//PORTB                                                                         C:\Cdc\user\user.c
0011de   98f2     BCF       0xf2,0x4,0x0   	INTCONbits.INT0IE = 0;                                                          C:\Cdc\user\user.c
0011e0   96f2     BCF       0xf2,0x3,0x0   	INTCONbits.RBIE = 0;                                                            C:\Cdc\user\user.c
0011e2   92f2     BCF       0xf2,0x1,0x0   	INTCONbits.INT0IF = 0;                                                          C:\Cdc\user\user.c
0011e4   90f2     BCF       0xf2,0x0,0x0   	INTCONbits.RBIF = 0;                                                            C:\Cdc\user\user.c
0011e6   8ef1     BSF       0xf1,0x7,0x0   	INTCON2bits.RBPU = 1;                                                           C:\Cdc\user\user.c
0011e8   9cf1     BCF       0xf1,0x6,0x0   	INTCON2bits.INTEDG0 = 0;                                                        C:\Cdc\user\user.c
0011ea   9af1     BCF       0xf1,0x5,0x0   	INTCON2bits.INTEDG1 = 0;                                                        C:\Cdc\user\user.c
0011ec   98f1     BCF       0xf1,0x4,0x0   	INTCON2bits.INTEDG2 = 0;                                                        C:\Cdc\user\user.c
0011ee   90f1     BCF       0xf1,0x0,0x0   	INTCON2bits.RBIP = 0;                                                           C:\Cdc\user\user.c
0011f0   9065     BCF       0x65,0x0,0x0   	SPPCONbits.SPPEN = 0;                                                           C:\Cdc\user\user.c
0011f2   9a63     BCF       0x63,0x5,0x0   	SPPCFGbits.CSEN = 0;                                                            C:\Cdc\user\user.c
0011f4   6a93     CLRF      0x93,0x0       	TRISB = 0; //All outputs                                                        C:\Cdc\user\user.c
                                           	                                                                                C:\Cdc\user\user.c
                                           	//PORTC & Serial	                                                               C:\Cdc\user\user.c
0011f6   6a94     CLRF      0x94,0x0       	TRISC = 0; //This doesn't affect the USB pins                                   C:\Cdc\user\user.c
                                                                                                                            C:\Cdc\user\user.c
                                           	//PORTD                                                                         C:\Cdc\user\user.c
0011f8   9ebd     BCF       0xbd,0x7,0x0   	CCP1CONbits.P1M1 = 0;                                                           C:\Cdc\user\user.c
0011fa   9cbd     BCF       0xbd,0x6,0x0   	CCP1CONbits.P1M0 = 0;                                                           C:\Cdc\user\user.c
0011fc   9065     BCF       0x65,0x0,0x0   	SPPCONbits.SPPEN = 0;                                                           C:\Cdc\user\user.c
0011fe   0e80     MOVLW     0x80           	LATE = 0x80; //Enable pullups                                                   C:\Cdc\user\user.c
001200   6e8d     MOVWF     0x8d,0x0                                                                                        
001202   6895     SETF      0x95,0x0       	TRISD = 0xFF;                                                                   C:\Cdc\user\user.c
                                                                                                                            C:\Cdc\user\user.c
                                           	//PORTE                                                                         C:\Cdc\user\user.c
001204   9ac1     BCF       0xc1,0x5,0x0   	ADCON1bits.VCFG1 = 0;                                                           C:\Cdc\user\user.c
001206   98c1     BCF       0xc1,0x4,0x0   	ADCON1bits.VCFG0 = 0;                                                           C:\Cdc\user\user.c
001208   96c1     BCF       0xc1,0x3,0x0   	ADCON1bits.PCFG3 = 0;                                                           C:\Cdc\user\user.c
00120a   94c1     BCF       0xc1,0x2,0x0   	ADCON1bits.PCFG2 = 0;                                                           C:\Cdc\user\user.c
00120c   92c1     BCF       0xc1,0x1,0x0   	ADCON1bits.PCFG1 = 0;                                                           C:\Cdc\user\user.c
00120e   90c1     BCF       0xc1,0x0,0x0   	ADCON1bits.PCFG0 = 0;                                                           C:\Cdc\user\user.c
001210   6a96     CLRF      0x96,0x0       	TRISE = 0;                                                                      C:\Cdc\user\user.c
                                           	                                                                                C:\Cdc\user\user.c
                                           	//10S Timer                                                                     C:\Cdc\user\user.c
001212   8ed5     BSF       0xd5,0x7,0x0   	T0CONbits.TMR0ON = 1; //Enable timer                                            C:\Cdc\user\user.c
001214   9cd5     BCF       0xd5,0x6,0x0   	T0CONbits.T08BIT = 0; //16bit                                                   C:\Cdc\user\user.c
001216   9ad5     BCF       0xd5,0x5,0x0   	T0CONbits.T0CS = 0; //Clock on instruction cycle                                C:\Cdc\user\user.c
001218   98d5     BCF       0xd5,0x4,0x0   	T0CONbits.T0SE = 0; //Low to high transition. Not used                          C:\Cdc\user\user.c
00121a   96d5     BCF       0xd5,0x3,0x0   	T0CONbits.PSA = 0; //User Prescaler                                             C:\Cdc\user\user.c
00121c   84d5     BSF       0xd5,0x2,0x0   	T0CONbits.T0PS2 = 1;                                                            C:\Cdc\user\user.c
00121e   82d5     BSF       0xd5,0x1,0x0   	T0CONbits.T0PS1 = 1;                                                            C:\Cdc\user\user.c
001220   80d5     BSF       0xd5,0x0,0x0   	T0CONbits.T0PS0 = 1; //1:256 prescaler. 1 tick = 1.39s                          C:\Cdc\user\user.c
                                           	                                                                                C:\Cdc\user\user.c
001222   0012     RETURN    0x0            }//end UserInit                                                                  C:\Cdc\user\user.c
                                                                                                                            C:\Cdc\user\user.c
                                           void InitializeUSART(void)                                                       C:\Cdc\user\user.c
                                           {                                                                                C:\Cdc\user\user.c
001224   8e94     BSF       0x94,0x7,0x0       TRISCbits.TRISC7=1; // RX                                                    C:\Cdc\user\user.c
001226   9c94     BCF       0x94,0x6,0x0       TRISCbits.TRISC6=0; // TX                                                    C:\Cdc\user\user.c
001228   0e71     MOVLW     0x71               SPBRG = 0x71;                                                                C:\Cdc\user\user.c
00122a   6eaf     MOVWF     0xaf,0x0                                                                                        
00122c   0e02     MOVLW     0x2                SPBRGH = 0x02;      // 0x0271 for 48MHz -> 19200 baud                        C:\Cdc\user\user.c
00122e   6eb0     MOVWF     0xb0,0x0                                                                                        
001230   0e24     MOVLW     0x24               TXSTA = 0x24;       // TX enable BRGH=1                                      C:\Cdc\user\user.c
001232   6eac     MOVWF     0xac,0x0                                                                                        
001234   0e90     MOVLW     0x90               RCSTA = 0x90;       // continuous RX                                         C:\Cdc\user\user.c
001236   6eab     MOVWF     0xab,0x0                                                                                        
001238   0e08     MOVLW     0x8                BAUDCON = 0x08;     // BRG16 = 1                                             C:\Cdc\user\user.c
00123a   6eb8     MOVWF     0xb8,0x0                                                                                        
00123c   0012     RETURN    0x0            }//end InitializeUSART                                                           C:\Cdc\user\user.c
                                                                                                                            C:\Cdc\user\user.c
                                                                                                                            C:\Cdc\user\user.c
                                           /******************************************************************************  C:\Cdc\user\user.c
                                            * Function:        void ProcessIO(void)                                         C:\Cdc\user\user.c
                                            *                                                                               C:\Cdc\user\user.c
                                            * PreCondition:    None                                                         C:\Cdc\user\user.c
                                            *                                                                               C:\Cdc\user\user.c
                                            * Input:           None                                                         C:\Cdc\user\user.c
                                            *                                                                               C:\Cdc\user\user.c
                                            * Output:          None                                                         C:\Cdc\user\user.c
                                            *                                                                               C:\Cdc\user\user.c
                                            * Side Effects:    None                                                         C:\Cdc\user\user.c
                                            *                                                                               C:\Cdc\user\user.c
                                            * Overview:        This function is a place holder for other user routines.     C:\Cdc\user\user.c
                                            *                  It is a mixture of both USB and non-USB tasks.               C:\Cdc\user\user.c
                                            *                                                                               C:\Cdc\user\user.c
                                            * Note:            None                                                         C:\Cdc\user\user.c
                                            *****************************************************************************/  C:\Cdc\user\user.c
                                           #pragma udata buffer_section_a                                                   C:\Cdc\user\user.c
                                           unsigned char bufa[254];                                                         C:\Cdc\user\user.c
                                           #pragma udata buffer_section_b                                                   C:\Cdc\user\user.c
                                           unsigned char bufb[254];                                                         C:\Cdc\user\user.c
                                           #pragma udata                                                                    C:\Cdc\user\user.c
                                                                                                                            C:\Cdc\user\user.c
00123e   cfd9     MOVFF     0xfd9,0xfe6    void ProcessIO(void)                                                             C:\Cdc\user\user.c
001240   ffe6                                                                                                               
001242   cfe1     MOVFF     0xfe1,0xfd9                                                                                     
001244   ffd9                                                                                                               
001246   52e6     MOVF      0xe6,0x1,0x0                                                                                    
                                           {                                                                                C:\Cdc\user\user.c
                                           	static unsigned char a = 0;                                                     C:\Cdc\user\user.c
001248   6adf     CLRF      0xdf,0x0       	unsigned char b=0;                                                              C:\Cdc\user\user.c
                                           	static unsigned char bufid = 0;                                                 C:\Cdc\user\user.c
                                           	static unsigned char bufpos = 0;                                                C:\Cdc\user\user.c
                                           	static unsigned char needtosend = 0;                                            C:\Cdc\user\user.c
                                                                                                                            C:\Cdc\user\user.c
                                           	//if(INTCONbits.TMR0IF){                                                        C:\Cdc\user\user.c
00124a   b2c2     BTFSC     0xc2,0x1,0x0   	if(ADCON0bits.GO_DONE == 0){                                                    C:\Cdc\user\user.c
00124c   d053     BRA       0x12f4                                                                                          
                                           		//INTCONbits.TMR0IF = 0;                                                       C:\Cdc\user\user.c
00124e   0100     MOVLB     0x0            		a ^= 0x01;                                                                     C:\Cdc\user\user.c
001250   71b1     BTG       0xb1,0x0,0x1                                                                                    
001252   82c2     BSF       0xc2,0x1,0x0   		ADCON0bits.GO_DONE = 1;                                                        C:\Cdc\user\user.c
                                           		                                                                               C:\Cdc\user\user.c
001254   51b2     MOVF      0xb2,0x0,0x1   		if(bufid==0){                                                                  C:\Cdc\user\user.c
001256   e128     BNZ       0x12a8                                                                                          
001258   51b3     MOVF      0xb3,0x0,0x1   			bufa[bufpos++] = ADRESH;                                                      C:\Cdc\user\user.c
00125a   2bb3     INCF      0xb3,0x1,0x1                                                                                    
00125c   6aea     CLRF      0xea,0x0                                                                                        
00125e   0f00     ADDLW     0x0                                                                                             
001260   6ee9     MOVWF     0xe9,0x0                                                                                        
001262   0e02     MOVLW     0x2                                                                                             
001264   22ea     ADDWFC    0xea,0x1,0x0                                                                                    
001266   cfc4     MOVFF     0xfc4,0xfef                                                                                     
001268   ffef                                                                                                               
00126a   51b3     MOVF      0xb3,0x0,0x1   			bufa[bufpos++] = ADRESL;                                                      C:\Cdc\user\user.c
00126c   2bb3     INCF      0xb3,0x1,0x1                                                                                    
00126e   6aea     CLRF      0xea,0x0                                                                                        
001270   0f00     ADDLW     0x0                                                                                             
001272   6ee9     MOVWF     0xe9,0x0                                                                                        
001274   0e02     MOVLW     0x2                                                                                             
001276   22ea     ADDWFC    0xea,0x1,0x0                                                                                    
001278   cfc3     MOVFF     0xfc3,0xfef                                                                                     
00127a   ffef                                                                                                               
                                           		                                                                               C:\Cdc\user\user.c
00127c   51b3     MOVF      0xb3,0x0,0x1   			if(bufpos == 254){                                                            C:\Cdc\user\user.c
00127e   6e02     MOVWF     0x2,0x0                                                                                         
001280   6a03     CLRF      0x3,0x0                                                                                         
001282   0efe     MOVLW     0xfe                                                                                            
001284   1802     XORWF     0x2,0x0,0x0                                                                                     
001286   e101     BNZ       0x128a                                                                                          
001288   5003     MOVF      0x3,0x0,0x0                                                                                     
00128a   e10d     BNZ       0x12a6                                                                                          
00128c   51b4     MOVF      0xb4,0x0,0x1   				if(needtosend > 0){                                                          C:\Cdc\user\user.c
00128e   0800     SUBLW     0x0                                                                                             
001290   e205     BC        0x129c                                                                                          
001292   0e01     MOVLW     0x1            					b = 1;                                                                      C:\Cdc\user\user.c
001294   6edf     MOVWF     0xdf,0x0                                                                                        
001296   0efc     MOVLW     0xfc           					bufpos = 252;                                                               C:\Cdc\user\user.c
001298   6fb3     MOVWF     0xb3,0x1                                                                                        
00129a   d005     BRA       0x12a6         				} else {                                                                     C:\Cdc\user\user.c
00129c   6bb3     CLRF      0xb3,0x1       					bufpos = 0;                                                                 C:\Cdc\user\user.c
00129e   0e01     MOVLW     0x1            					bufid = 1;                                                                  C:\Cdc\user\user.c
0012a0   6fb2     MOVWF     0xb2,0x1                                                                                        
0012a2   0e0a     MOVLW     0xa            					needtosend = 10;                                                            C:\Cdc\user\user.c
0012a4   6fb4     MOVWF     0xb4,0x1                                                                                        
                                           				}                                                                            C:\Cdc\user\user.c
                                           			}                                                                             C:\Cdc\user\user.c
0012a6   d026     BRA       0x12f4         		} else {                                                                       C:\Cdc\user\user.c
0012a8   51b3     MOVF      0xb3,0x0,0x1   			bufb[bufpos++] = ADRESH;                                                      C:\Cdc\user\user.c
0012aa   2bb3     INCF      0xb3,0x1,0x1                                                                                    
0012ac   6aea     CLRF      0xea,0x0                                                                                        
0012ae   0f00     ADDLW     0x0                                                                                             
0012b0   6ee9     MOVWF     0xe9,0x0                                                                                        
0012b2   0e01     MOVLW     0x1                                                                                             
0012b4   22ea     ADDWFC    0xea,0x1,0x0                                                                                    
0012b6   cfc4     MOVFF     0xfc4,0xfef                                                                                     
0012b8   ffef                                                                                                               
0012ba   51b3     MOVF      0xb3,0x0,0x1   			bufb[bufpos++] = ADRESL;                                                      C:\Cdc\user\user.c
0012bc   2bb3     INCF      0xb3,0x1,0x1                                                                                    
0012be   6aea     CLRF      0xea,0x0                                                                                        
0012c0   0f00     ADDLW     0x0                                                                                             
0012c2   6ee9     MOVWF     0xe9,0x0                                                                                        
0012c4   0e01     MOVLW     0x1                                                                                             
0012c6   22ea     ADDWFC    0xea,0x1,0x0                                                                                    
0012c8   cfc3     MOVFF     0xfc3,0xfef                                                                                     
0012ca   ffef                                                                                                               
                                           		                                                                               C:\Cdc\user\user.c
0012cc   51b3     MOVF      0xb3,0x0,0x1   			if(bufpos == 254){                                                            C:\Cdc\user\user.c
0012ce   6e02     MOVWF     0x2,0x0                                                                                         
0012d0   6a03     CLRF      0x3,0x0                                                                                         
0012d2   0efe     MOVLW     0xfe                                                                                            
0012d4   1802     XORWF     0x2,0x0,0x0                                                                                     
0012d6   e101     BNZ       0x12da                                                                                          
0012d8   5003     MOVF      0x3,0x0,0x0                                                                                     
0012da   e10c     BNZ       0x12f4                                                                                          
0012dc   51b4     MOVF      0xb4,0x0,0x1   				if(needtosend > 0){                                                          C:\Cdc\user\user.c
0012de   0800     SUBLW     0x0                                                                                             
0012e0   e205     BC        0x12ec                                                                                          
0012e2   0e01     MOVLW     0x1            					b = 1;                                                                      C:\Cdc\user\user.c
0012e4   6edf     MOVWF     0xdf,0x0                                                                                        
0012e6   0efc     MOVLW     0xfc           					bufpos = 252;                                                               C:\Cdc\user\user.c
0012e8   6fb3     MOVWF     0xb3,0x1                                                                                        
0012ea   d004     BRA       0x12f4         				} else {                                                                     C:\Cdc\user\user.c
0012ec   6bb3     CLRF      0xb3,0x1       					bufpos = 0;                                                                 C:\Cdc\user\user.c
0012ee   6bb2     CLRF      0xb2,0x1       					bufid = 0;                                                                  C:\Cdc\user\user.c
0012f0   0e0b     MOVLW     0xb            					needtosend = 11;                                                            C:\Cdc\user\user.c
0012f2   6fb4     MOVWF     0xb4,0x1                                                                                        
                                           				}                                                                            C:\Cdc\user\user.c
                                           			}			                                                                          C:\Cdc\user\user.c
                                           		}                                                                              C:\Cdc\user\user.c
                                           	}                                                                               C:\Cdc\user\user.c
                                           	                                                                                C:\Cdc\user\user.c
0012f4   0100     MOVLB     0x0            	if(needtosend > 0)                                                              C:\Cdc\user\user.c
0012f6   51b4     MOVF      0xb4,0x0,0x1                                                                                    
0012f8   0800     SUBLW     0x0                                                                                             
0012fa   e225     BC        0x1346                                                                                          
0012fc   0100     MOVLB     0x0            		if(mUSBUSARTIsTxTrfReady()){                                                   C:\Cdc\user\user.c
0012fe   5181     MOVF      0x81,0x0,0x1                                                                                    
001300   e122     BNZ       0x1346                                                                                          
001302   0e0a     MOVLW     0xa            			if(needtosend == 10){                                                         C:\Cdc\user\user.c
001304   0100     MOVLB     0x0                                                                                             
001306   5db4     SUBWF     0xb4,0x0,0x1                                                                                    
001308   e10e     BNZ       0x1326                                                                                          
00130a   0100     MOVLB     0x0            				mUSBUSARTTxRam(bufa, 254);                                                   C:\Cdc\user\user.c
00130c   0e00     MOVLW     0x0                                                                                             
00130e   6f82     MOVWF     0x82,0x1                                                                                        
001310   0e02     MOVLW     0x2                                                                                             
001312   6f83     MOVWF     0x83,0x1                                                                                        
001314   0100     MOVLB     0x0                                                                                             
001316   0efe     MOVLW     0xfe                                                                                            
001318   6f86     MOVWF     0x86,0x1                                                                                        
00131a   0100     MOVLB     0x0                                                                                             
00131c   6b87     CLRF      0x87,0x1                                                                                        
00131e   0100     MOVLB     0x0                                                                                             
001320   0e01     MOVLW     0x1                                                                                             
001322   6f81     MOVWF     0x81,0x1                                                                                        
001324   d00d     BRA       0x1340         			} else {                                                                      C:\Cdc\user\user.c
001326   0100     MOVLB     0x0            				mUSBUSARTTxRam(bufb, 254);                                                   C:\Cdc\user\user.c
001328   0e00     MOVLW     0x0                                                                                             
00132a   6f82     MOVWF     0x82,0x1                                                                                        
00132c   0e01     MOVLW     0x1                                                                                             
00132e   6f83     MOVWF     0x83,0x1                                                                                        
001330   0100     MOVLB     0x0                                                                                             
001332   0efe     MOVLW     0xfe                                                                                            
001334   6f86     MOVWF     0x86,0x1                                                                                        
001336   0100     MOVLB     0x0                                                                                             
001338   6b87     CLRF      0x87,0x1                                                                                        
00133a   0100     MOVLB     0x0                                                                                             
00133c   0e01     MOVLW     0x1                                                                                             
00133e   6f81     MOVWF     0x81,0x1                                                                                        
                                           			}                                                                             C:\Cdc\user\user.c
001340   6adf     CLRF      0xdf,0x0       			b = 0;                                                                        C:\Cdc\user\user.c
001342   0100     MOVLB     0x0            			needtosend = 0;                                                               C:\Cdc\user\user.c
001344   6bb4     CLRF      0xb4,0x1                                                                                        
                                           		}                                                                              C:\Cdc\user\user.c
                                           	                                                                                C:\Cdc\user\user.c
001346   50df     MOVF      0xdf,0x0,0x0   	PORTB = ~(a | (b << 1));                                                        C:\Cdc\user\user.c
001348   24e8     ADDWF     0xe8,0x0,0x0                                                                                    
00134a   0100     MOVLB     0x0                                                                                             
00134c   11b1     IORWF     0xb1,0x0,0x1                                                                                    
00134e   1ce8     COMF      0xe8,0x0,0x0                                                                                    
001350   6e81     MOVWF     0x81,0x0                                                                                        
001352   52e5     MOVF      0xe5,0x1,0x0   }                                                                                C:\Cdc\user\user.c
001354   52e5     MOVF      0xe5,0x1,0x0                                                                                    
001356   cfe7     MOVFF     0xfe7,0xfd9                                                                                     
001358   ffd9                                                                                                               
00135a   0012     RETURN    0x0                                                                                             
                                           /*********************************************************************           C:\Cdc\system\usb\class\cdc\cdc.c
                                            *                                                                               C:\Cdc\system\usb\class\cdc\cdc.c
                                            *             Microchip USB C18 Firmware -  CDC Version 1.0                     C:\Cdc\system\usb\class\cdc\cdc.c
                                            *                                                                               C:\Cdc\system\usb\class\cdc\cdc.c
                                            *********************************************************************           C:\Cdc\system\usb\class\cdc\cdc.c
                                            * FileName:        cdc.c                                                        C:\Cdc\system\usb\class\cdc\cdc.c
                                            * Dependencies:    See INCLUDES section below                                   C:\Cdc\system\usb\class\cdc\cdc.c
                                            * Processor:       PIC18                                                        C:\Cdc\system\usb\class\cdc\cdc.c
                                            * Compiler:        C18 2.30.01+                                                 C:\Cdc\system\usb\class\cdc\cdc.c
                                            * Company:         Microchip Technology, Inc.                                   C:\Cdc\system\usb\class\cdc\cdc.c
                                            *                                                                               C:\Cdc\system\usb\class\cdc\cdc.c
                                            * Software License Agreement                                                    C:\Cdc\system\usb\class\cdc\cdc.c
                                            *                                                                               C:\Cdc\system\usb\class\cdc\cdc.c
                                            * The software supplied herewith by Microchip Technology Incorporated           C:\Cdc\system\usb\class\cdc\cdc.c
                                            * (the “Company”) for its PICmicro® Microcontroller is intended and             C:\Cdc\system\usb\class\cdc\cdc.c
                                            * supplied to you, the Company’s customer, for use solely and                   C:\Cdc\system\usb\class\cdc\cdc.c
                                            * exclusively on Microchip PICmicro Microcontroller products. The               C:\Cdc\system\usb\class\cdc\cdc.c
                                            * software is owned by the Company and/or its supplier, and is                  C:\Cdc\system\usb\class\cdc\cdc.c
                                            * protected under applicable copyright laws. All rights are reserved.           C:\Cdc\system\usb\class\cdc\cdc.c
                                            * Any use in violation of the foregoing restrictions may subject the            C:\Cdc\system\usb\class\cdc\cdc.c
                                            * user to criminal sanctions under applicable laws, as well as to               C:\Cdc\system\usb\class\cdc\cdc.c
                                            * civil liability for the breach of the terms and conditions of this            C:\Cdc\system\usb\class\cdc\cdc.c
                                            * license.                                                                      C:\Cdc\system\usb\class\cdc\cdc.c
                                            *                                                                               C:\Cdc\system\usb\class\cdc\cdc.c
                                            * THIS SOFTWARE IS PROVIDED IN AN “AS IS” CONDITION. NO WARRANTIES,             C:\Cdc\system\usb\class\cdc\cdc.c
                                            * WHETHER EXPRESS, IMPLIED OR STATUTORY, INCLUDING, BUT NOT LIMITED             C:\Cdc\system\usb\class\cdc\cdc.c
                                            * TO, IMPLIED WARRANTIES OF MERCHANTABILITY AND FITNESS FOR A                   C:\Cdc\system\usb\class\cdc\cdc.c
                                            * PARTICULAR PURPOSE APPLY TO THIS SOFTWARE. THE COMPANY SHALL NOT,             C:\Cdc\system\usb\class\cdc\cdc.c
                                            * IN ANY CIRCUMSTANCES, BE LIABLE FOR SPECIAL, INCIDENTAL OR                    C:\Cdc\system\usb\class\cdc\cdc.c
                                            * CONSEQUENTIAL DAMAGES, FOR ANY REASON WHATSOEVER.                             C:\Cdc\system\usb\class\cdc\cdc.c
                                            *                                                                               C:\Cdc\system\usb\class\cdc\cdc.c
                                            * Author               Date        Comment                                      C:\Cdc\system\usb\class\cdc\cdc.c
                                            *~~~~~~~~~~~~~~~~~~~~~~~~~~~~~~~~~~~~~~~~~~~~~~~~~~~~~~~~~~~~~~~~~~~~           C:\Cdc\system\usb\class\cdc\cdc.c
                                            * Rawin Rojvanit       11/19/04    Original. RS-232 Emulation Subset            C:\Cdc\system\usb\class\cdc\cdc.c
                                            ********************************************************************/           C:\Cdc\system\usb\class\cdc\cdc.c
                                                                                                                            C:\Cdc\system\usb\class\cdc\cdc.c
                                           /** I N C L U D E S **********************************************************/  C:\Cdc\system\usb\class\cdc\cdc.c
                                           #include <p18cxxx.h>                                                             C:\Cdc\system\usb\class\cdc\cdc.c
                                           #include "system\typedefs.h"                                                     C:\Cdc\system\usb\class\cdc\cdc.c
                                           #include "system\usb\usb.h"                                                      C:\Cdc\system\usb\class\cdc\cdc.c
                                                                                                                            C:\Cdc\system\usb\class\cdc\cdc.c
                                           #ifdef USB_USE_CDC                                                               C:\Cdc\system\usb\class\cdc\cdc.c
                                                                                                                            C:\Cdc\system\usb\class\cdc\cdc.c
                                           /** V A R I A B L E S ********************************************************/  C:\Cdc\system\usb\class\cdc\cdc.c
                                           #pragma udata                                                                    C:\Cdc\system\usb\class\cdc\cdc.c
                                           byte cdc_rx_len;            // total rx length                                   C:\Cdc\system\usb\class\cdc\cdc.c
                                                                                                                            C:\Cdc\system\usb\class\cdc\cdc.c
                                           byte cdc_trf_state;         // States are defined cdc.h                          C:\Cdc\system\usb\class\cdc\cdc.c
                                           POINTER pCDCSrc;            // Dedicated source pointer                          C:\Cdc\system\usb\class\cdc\cdc.c
                                           POINTER pCDCDst;            // Dedicated destination pointer                     C:\Cdc\system\usb\class\cdc\cdc.c
                                           byte cdc_tx_len;            // total tx length                                   C:\Cdc\system\usb\class\cdc\cdc.c
                                           byte cdc_mem_type;          // _ROM, _RAM                                        C:\Cdc\system\usb\class\cdc\cdc.c
                                                                                                                            C:\Cdc\system\usb\class\cdc\cdc.c
                                           LINE_CODING line_coding;    // Buffer to store line coding information           C:\Cdc\system\usb\class\cdc\cdc.c
                                           CONTROL_SIGNAL_BITMAP control_signal_bitmap;                                     C:\Cdc\system\usb\class\cdc\cdc.c
                                                                                                                            C:\Cdc\system\usb\class\cdc\cdc.c
                                           /*                                                                               C:\Cdc\system\usb\class\cdc\cdc.c
                                            * SEND_ENCAPSULATED_COMMAND and GET_ENCAPSULATED_RESPONSE are required          C:\Cdc\system\usb\class\cdc\cdc.c
                                            * requests according to the CDC specification.                                  C:\Cdc\system\usb\class\cdc\cdc.c
                                            * However, it is not really being used here, therefore a dummy buffer is        C:\Cdc\system\usb\class\cdc\cdc.c
                                            * used for conformance.                                                         C:\Cdc\system\usb\class\cdc\cdc.c
                                            */                                                                              C:\Cdc\system\usb\class\cdc\cdc.c
                                           #define dummy_length    0x08                                                     C:\Cdc\system\usb\class\cdc\cdc.c
                                           byte dummy_encapsulated_cmd_response[dummy_length];                              C:\Cdc\system\usb\class\cdc\cdc.c
                                                                                                                            C:\Cdc\system\usb\class\cdc\cdc.c
                                           /** P R I V A T E  P R O T O T Y P E S ***************************************/  C:\Cdc\system\usb\class\cdc\cdc.c
                                                                                                                            C:\Cdc\system\usb\class\cdc\cdc.c
                                           /** D E C L A R A T I O N S **************************************************/  C:\Cdc\system\usb\class\cdc\cdc.c
                                           #pragma code                                                                     C:\Cdc\system\usb\class\cdc\cdc.c
                                                                                                                            C:\Cdc\system\usb\class\cdc\cdc.c
                                           /** C L A S S  S P E C I F I C  R E Q ****************************************/  C:\Cdc\system\usb\class\cdc\cdc.c
                                           /******************************************************************************  C:\Cdc\system\usb\class\cdc\cdc.c
                                            * Function:        void USBCheckCDCRequest(void)                                C:\Cdc\system\usb\class\cdc\cdc.c
                                            *                                                                               C:\Cdc\system\usb\class\cdc\cdc.c
                                            * PreCondition:    None                                                         C:\Cdc\system\usb\class\cdc\cdc.c
                                            *                                                                               C:\Cdc\system\usb\class\cdc\cdc.c
                                            * Input:           None                                                         C:\Cdc\system\usb\class\cdc\cdc.c
                                            *                                                                               C:\Cdc\system\usb\class\cdc\cdc.c
                                            * Output:          None                                                         C:\Cdc\system\usb\class\cdc\cdc.c
                                            *                                                                               C:\Cdc\system\usb\class\cdc\cdc.c
                                            * Side Effects:    None                                                         C:\Cdc\system\usb\class\cdc\cdc.c
                                            *                                                                               C:\Cdc\system\usb\class\cdc\cdc.c
                                            * Overview:        This routine checks the setup data packet to see if it       C:\Cdc\system\usb\class\cdc\cdc.c
                                            *                  knows how to handle it                                       C:\Cdc\system\usb\class\cdc\cdc.c
                                            *                                                                               C:\Cdc\system\usb\class\cdc\cdc.c
                                            * Note:            None                                                         C:\Cdc\system\usb\class\cdc\cdc.c
                                            *****************************************************************************/  C:\Cdc\system\usb\class\cdc\cdc.c
                                           void USBCheckCDCRequest(void)                                                    C:\Cdc\system\usb\class\cdc\cdc.c
                                           {                                                                                C:\Cdc\system\usb\class\cdc\cdc.c
                                               /*                                                                           C:\Cdc\system\usb\class\cdc\cdc.c
                                                * If request recipient is not an interface then return                      C:\Cdc\system\usb\class\cdc\cdc.c
                                                */                                                                          C:\Cdc\system\usb\class\cdc\cdc.c
000838   0104     MOVLB     0x4                if(SetupPkt.Recipient != RCPT_INTF) return;                                  C:\Cdc\system\usb\class\cdc\cdc.c
00083a   5120     MOVF      0x20,0x0,0x1                                                                                    
00083c   0b1f     ANDLW     0x1f                                                                                            
00083e   0801     SUBLW     0x1                                                                                             
000840   e001     BZ        0x844                                                                                           
000842   d05b     BRA       0x8fa                                                                                           
                                                                                                                            C:\Cdc\system\usb\class\cdc\cdc.c
                                               /*                                                                           C:\Cdc\system\usb\class\cdc\cdc.c
                                                * If request type is not class-specific then return                         C:\Cdc\system\usb\class\cdc\cdc.c
                                                */                                                                          C:\Cdc\system\usb\class\cdc\cdc.c
000844   5120     MOVF      0x20,0x0,0x1       if(SetupPkt.RequestType != CLASS) return;                                    C:\Cdc\system\usb\class\cdc\cdc.c
000846   0b60     ANDLW     0x60                                                                                            
000848   42e8     RRNCF     0xe8,0x1,0x0                                                                                    
00084a   42e8     RRNCF     0xe8,0x1,0x0                                                                                    
00084c   42e8     RRNCF     0xe8,0x1,0x0                                                                                    
00084e   42e8     RRNCF     0xe8,0x1,0x0                                                                                    
000850   42e8     RRNCF     0xe8,0x1,0x0                                                                                    
000852   0801     SUBLW     0x1                                                                                             
000854   e001     BZ        0x858                                                                                           
000856   d051     BRA       0x8fa                                                                                           
                                                                                                                            C:\Cdc\system\usb\class\cdc\cdc.c
                                               /*                                                                           C:\Cdc\system\usb\class\cdc\cdc.c
                                                * Interface ID must match interface numbers associated with                 C:\Cdc\system\usb\class\cdc\cdc.c
                                                * CDC class, else return                                                    C:\Cdc\system\usb\class\cdc\cdc.c
                                                */                                                                          C:\Cdc\system\usb\class\cdc\cdc.c
000858   5124     MOVF      0x24,0x0,0x1       if((SetupPkt.bIntfID != CDC_COMM_INTF_ID)&&                                  C:\Cdc\system\usb\class\cdc\cdc.c
00085a   e003     BZ        0x862                 (SetupPkt.bIntfID != CDC_DATA_INTF_ID)) return;                           C:\Cdc\system\usb\class\cdc\cdc.c
00085c   0524     DECF      0x24,0x0,0x1                                                                                    
00085e   e001     BZ        0x862                                                                                           
000860   d04c     BRA       0x8fa                                                                                           
                                                                                                                            C:\Cdc\system\usb\class\cdc\cdc.c
000862   5121     MOVF      0x21,0x0,0x1       switch(SetupPkt.bRequest)                                                    C:\Cdc\system\usb\class\cdc\cdc.c
000864   0a23     XORLW     0x23                                                                                            
000866   e048     BZ        0x8f8                                                                                           
000868   0a01     XORLW     0x1                                                                                             
00086a   e040     BZ        0x8ec                                                                                           
00086c   0a03     XORLW     0x3                                                                                             
00086e   e030     BZ        0x8d0                                                                                           
000870   0a01     XORLW     0x1                                                                                             
000872   e025     BZ        0x8be                                                                                           
000874   0a24     XORLW     0x24                                                                                            
000876   e022     BZ        0x8bc                                                                                           
000878   0a07     XORLW     0x7                                                                                             
00087a   e01f     BZ        0x8ba                                                                                           
00087c   0a01     XORLW     0x1                                                                                             
00087e   e01c     BZ        0x8b8                                                                                           
000880   0a03     XORLW     0x3                                                                                             
000882   e011     BZ        0x8a6                                                                                           
000884   0a01     XORLW     0x1                                                                                             
000886   e001     BZ        0x88a                                                                                           
                                               {                                                                            C:\Cdc\system\usb\class\cdc\cdc.c
                                                   case SEND_ENCAPSULATED_COMMAND:                                          C:\Cdc\system\usb\class\cdc\cdc.c
00088a   0100     MOVLB     0x0                        ctrl_trf_session_owner = MUID_CDC;                                   C:\Cdc\system\usb\class\cdc\cdc.c
00088c   0e03     MOVLW     0x3                                                                                             
00088e   6fa6     MOVWF     0xa6,0x1                                                                                        
000890   0100     MOVLB     0x0                        pSrc.bRam = (byte*)&dummy_encapsulated_cmd_response;                 C:\Cdc\system\usb\class\cdc\cdc.c
000892   0e93     MOVLW     0x93                                                                                            
000894   6fa7     MOVWF     0xa7,0x1                                                                                        
000896   0e00     MOVLW     0x0                                                                                             
000898   6fa8     MOVWF     0xa8,0x1                                                                                        
00089a   0100     MOVLB     0x0                        usb_stat.ctrl_trf_mem = _RAM;                                        C:\Cdc\system\usb\class\cdc\cdc.c
00089c   93ae     BCF       0xae,0x1,0x1                                                                                    
00089e   0100     MOVLB     0x0                        LSB(wCount) = dummy_length;                                          C:\Cdc\system\usb\class\cdc\cdc.c
0008a0   0e08     MOVLW     0x8                                                                                             
0008a2   6fab     MOVWF     0xab,0x1                                                                                        
0008a4   d02a     BRA       0x8fa                      break;                                                               C:\Cdc\system\usb\class\cdc\cdc.c
                                                   case GET_ENCAPSULATED_RESPONSE:                                          C:\Cdc\system\usb\class\cdc\cdc.c
0008a6   0100     MOVLB     0x0                        ctrl_trf_session_owner = MUID_CDC;                                   C:\Cdc\system\usb\class\cdc\cdc.c
0008a8   0e03     MOVLW     0x3                                                                                             
0008aa   6fa6     MOVWF     0xa6,0x1                                                                                        
                                                       // Populate dummy_encapsulated_cmd_response first.                   C:\Cdc\system\usb\class\cdc\cdc.c
0008ac   0100     MOVLB     0x0                        pDst.bRam = (byte*)&dummy_encapsulated_cmd_response;                 C:\Cdc\system\usb\class\cdc\cdc.c
0008ae   0e93     MOVLW     0x93                                                                                            
0008b0   6fa9     MOVWF     0xa9,0x1                                                                                        
0008b2   0e00     MOVLW     0x0                                                                                             
0008b4   6faa     MOVWF     0xaa,0x1                                                                                        
0008b6   d021     BRA       0x8fa                      break;                                                               C:\Cdc\system\usb\class\cdc\cdc.c
                                                   case SET_COMM_FEATURE:                  // Optional                      C:\Cdc\system\usb\class\cdc\cdc.c
0008b8   d020     BRA       0x8fa                      break;                                                               C:\Cdc\system\usb\class\cdc\cdc.c
                                                   case GET_COMM_FEATURE:                  // Optional                      C:\Cdc\system\usb\class\cdc\cdc.c
0008ba   d01f     BRA       0x8fa                      break;                                                               C:\Cdc\system\usb\class\cdc\cdc.c
                                                   case CLEAR_COMM_FEATURE:                // Optional                      C:\Cdc\system\usb\class\cdc\cdc.c
0008bc   d01e     BRA       0x8fa                      break;                                                               C:\Cdc\system\usb\class\cdc\cdc.c
                                                   case SET_LINE_CODING:                                                    C:\Cdc\system\usb\class\cdc\cdc.c
0008be   0100     MOVLB     0x0                        ctrl_trf_session_owner = MUID_CDC;                                   C:\Cdc\system\usb\class\cdc\cdc.c
0008c0   0e03     MOVLW     0x3                                                                                             
0008c2   6fa6     MOVWF     0xa6,0x1                                                                                        
0008c4   0100     MOVLB     0x0                        pDst.bRam = (byte*)&line_coding;    // Set destination               C:\Cdc\system\usb\class\cdc\cdc.c
0008c6   0e88     MOVLW     0x88                                                                                            
0008c8   6fa9     MOVWF     0xa9,0x1                                                                                        
0008ca   0e00     MOVLW     0x0                                                                                             
0008cc   6faa     MOVWF     0xaa,0x1                                                                                        
0008ce   d015     BRA       0x8fa                      break;                                                               C:\Cdc\system\usb\class\cdc\cdc.c
                                                   case GET_LINE_CODING:                                                    C:\Cdc\system\usb\class\cdc\cdc.c
0008d0   0100     MOVLB     0x0                        ctrl_trf_session_owner = MUID_CDC;                                   C:\Cdc\system\usb\class\cdc\cdc.c
0008d2   0e03     MOVLW     0x3                                                                                             
0008d4   6fa6     MOVWF     0xa6,0x1                                                                                        
0008d6   0100     MOVLB     0x0                        pSrc.bRam = (byte*)&line_coding;    // Set source                    C:\Cdc\system\usb\class\cdc\cdc.c
0008d8   0e88     MOVLW     0x88                                                                                            
0008da   6fa7     MOVWF     0xa7,0x1                                                                                        
0008dc   0e00     MOVLW     0x0                                                                                             
0008de   6fa8     MOVWF     0xa8,0x1                                                                                        
0008e0   0100     MOVLB     0x0                        usb_stat.ctrl_trf_mem = _RAM;       // Set memory type               C:\Cdc\system\usb\class\cdc\cdc.c
0008e2   93ae     BCF       0xae,0x1,0x1                                                                                    
0008e4   0100     MOVLB     0x0                        LSB(wCount) = LINE_CODING_LENGTH;   // Set data count                C:\Cdc\system\usb\class\cdc\cdc.c
0008e6   0e07     MOVLW     0x7                                                                                             
0008e8   6fab     MOVWF     0xab,0x1                                                                                        
0008ea   d007     BRA       0x8fa                      break;                                                               C:\Cdc\system\usb\class\cdc\cdc.c
                                                   case SET_CONTROL_LINE_STATE:                                             C:\Cdc\system\usb\class\cdc\cdc.c
0008ec   0100     MOVLB     0x0                        ctrl_trf_session_owner = MUID_CDC;                                   C:\Cdc\system\usb\class\cdc\cdc.c
0008ee   0e03     MOVLW     0x3                                                                                             
0008f0   6fa6     MOVWF     0xa6,0x1                                                                                        
0008f2   c422     MOVFF     0x422,0x8f                 control_signal_bitmap._byte = LSB(SetupPkt.W_Value);                 C:\Cdc\system\usb\class\cdc\cdc.c
0008f4   f08f                                                                                                               
0008f6   d001     BRA       0x8fa                      break;                                                               C:\Cdc\system\usb\class\cdc\cdc.c
                                                   case SEND_BREAK:                        // Optional                      C:\Cdc\system\usb\class\cdc\cdc.c
0008f8   d000     BRA       0x8fa                      break;                                                               C:\Cdc\system\usb\class\cdc\cdc.c
                                                   default:                                                                 C:\Cdc\system\usb\class\cdc\cdc.c
000888   d038     BRA       0x8fa                      break;                                                               C:\Cdc\system\usb\class\cdc\cdc.c
                                               }//end switch(SetupPkt.bRequest)                                             C:\Cdc\system\usb\class\cdc\cdc.c
                                                                                                                            C:\Cdc\system\usb\class\cdc\cdc.c
0008fa   0012     RETURN    0x0            }//end USBCheckCDCRequest                                                        C:\Cdc\system\usb\class\cdc\cdc.c
                                                                                                                            C:\Cdc\system\usb\class\cdc\cdc.c
                                           /** U S E R  A P I ***********************************************************/  C:\Cdc\system\usb\class\cdc\cdc.c
                                                                                                                            C:\Cdc\system\usb\class\cdc\cdc.c
                                           /******************************************************************************  C:\Cdc\system\usb\class\cdc\cdc.c
                                            * Function:        void CDCInitEP(void)                                         C:\Cdc\system\usb\class\cdc\cdc.c
                                            *                                                                               C:\Cdc\system\usb\class\cdc\cdc.c
                                            * PreCondition:    None                                                         C:\Cdc\system\usb\class\cdc\cdc.c
                                            *                                                                               C:\Cdc\system\usb\class\cdc\cdc.c
                                            * Input:           None                                                         C:\Cdc\system\usb\class\cdc\cdc.c
                                            *                                                                               C:\Cdc\system\usb\class\cdc\cdc.c
                                            * Output:          None                                                         C:\Cdc\system\usb\class\cdc\cdc.c
                                            *                                                                               C:\Cdc\system\usb\class\cdc\cdc.c
                                            * Side Effects:    None                                                         C:\Cdc\system\usb\class\cdc\cdc.c
                                            *                                                                               C:\Cdc\system\usb\class\cdc\cdc.c
                                            * Overview:        CDCInitEP initializes CDC endpoints, buffer descriptors,     C:\Cdc\system\usb\class\cdc\cdc.c
                                            *                  internal state-machine, and variables.                       C:\Cdc\system\usb\class\cdc\cdc.c
                                            *                  It should be called after the USB host has sent out a        C:\Cdc\system\usb\class\cdc\cdc.c
                                            *                  SET_CONFIGURATION request.                                   C:\Cdc\system\usb\class\cdc\cdc.c
                                            *                  See USBStdSetCfgHandler() in usb9.c for examples.            C:\Cdc\system\usb\class\cdc\cdc.c
                                            *                                                                               C:\Cdc\system\usb\class\cdc\cdc.c
                                            * Note:            None                                                         C:\Cdc\system\usb\class\cdc\cdc.c
                                            *****************************************************************************/  C:\Cdc\system\usb\class\cdc\cdc.c
                                           void CDCInitEP(void)                                                             C:\Cdc\system\usb\class\cdc\cdc.c
                                           {                                                                                C:\Cdc\system\usb\class\cdc\cdc.c
                                               //Abstract line coding information                                           C:\Cdc\system\usb\class\cdc\cdc.c
0008fc   0100     MOVLB     0x0                line_coding.dwDTERate._dword = 115200;      // baud rate                     C:\Cdc\system\usb\class\cdc\cdc.c
0008fe   6b88     CLRF      0x88,0x1                                                                                        
000900   0ec2     MOVLW     0xc2                                                                                            
000902   6f89     MOVWF     0x89,0x1                                                                                        
000904   0e01     MOVLW     0x1                                                                                             
000906   6f8a     MOVWF     0x8a,0x1                                                                                        
000908   6b8b     CLRF      0x8b,0x1                                                                                        
00090a   6b8c     CLRF      0x8c,0x1           line_coding.bCharFormat = 0x00;             // 1 stop bit                    C:\Cdc\system\usb\class\cdc\cdc.c
00090c   6b8d     CLRF      0x8d,0x1           line_coding.bParityType = 0x00;             // None                          C:\Cdc\system\usb\class\cdc\cdc.c
00090e   0e08     MOVLW     0x8                line_coding.bDataBits = 0x08;               // 5,6,7,8, or 16                C:\Cdc\system\usb\class\cdc\cdc.c
000910   6f8e     MOVWF     0x8e,0x1                                                                                        
                                                                                                                            C:\Cdc\system\usb\class\cdc\cdc.c
000912   6b81     CLRF      0x81,0x1           cdc_trf_state = CDC_TX_READY;                                                C:\Cdc\system\usb\class\cdc\cdc.c
000914   6b80     CLRF      0x80,0x1           cdc_rx_len = 0;                                                              C:\Cdc\system\usb\class\cdc\cdc.c
                                                                                                                            C:\Cdc\system\usb\class\cdc\cdc.c
000916   0e1a     MOVLW     0x1a               CDC_COMM_UEP = EP_IN|HSHK_EN;               // Enable 1 Comm pipe            C:\Cdc\system\usb\class\cdc\cdc.c
000918   6e72     MOVWF     0x72,0x0                                                                                        
00091a   0e1e     MOVLW     0x1e               CDC_DATA_UEP = EP_OUT_IN|HSHK_EN;           // Enable 2 data pipes           C:\Cdc\system\usb\class\cdc\cdc.c
00091c   6e73     MOVWF     0x73,0x0                                                                                        
                                                                                                                            C:\Cdc\system\usb\class\cdc\cdc.c
                                               /*                                                                           C:\Cdc\system\usb\class\cdc\cdc.c
                                                * Do not have to init Cnt of IN pipes here.                                 C:\Cdc\system\usb\class\cdc\cdc.c
                                                * Reason:  Number of bytes to send to the host                              C:\Cdc\system\usb\class\cdc\cdc.c
                                                *          varies from one transaction to                                   C:\Cdc\system\usb\class\cdc\cdc.c
                                                *          another. Cnt should equal the exact                              C:\Cdc\system\usb\class\cdc\cdc.c
                                                *          number of bytes to transmit for                                  C:\Cdc\system\usb\class\cdc\cdc.c
                                                *          a given IN transaction.                                          C:\Cdc\system\usb\class\cdc\cdc.c
                                                *          This number of bytes will only                                   C:\Cdc\system\usb\class\cdc\cdc.c
                                                *          be known right before the data is                                C:\Cdc\system\usb\class\cdc\cdc.c
                                                *          sent.                                                            C:\Cdc\system\usb\class\cdc\cdc.c
                                                */                                                                          C:\Cdc\system\usb\class\cdc\cdc.c
00091e   0104     MOVLB     0x4                CDC_INT_BD_IN.ADR = (byte*)&cdc_notice;     // Set buffer address            C:\Cdc\system\usb\class\cdc\cdc.c
000920   0e00     MOVLW     0x0                                                                                             
000922   6f16     MOVWF     0x16,0x1                                                                                        
000924   0e05     MOVLW     0x5                                                                                             
000926   6f17     MOVWF     0x17,0x1                                                                                        
000928   0e40     MOVLW     0x40               CDC_INT_BD_IN.Stat._byte = _UCPU|_DAT1;     // Set status                    C:\Cdc\system\usb\class\cdc\cdc.c
00092a   6f14     MOVWF     0x14,0x1                                                                                        
                                                                                                                            C:\Cdc\system\usb\class\cdc\cdc.c
00092c   0104     MOVLB     0x4                CDC_BULK_BD_OUT.Cnt = sizeof(cdc_data_rx);  // Set buffer size               C:\Cdc\system\usb\class\cdc\cdc.c
00092e   6f19     MOVWF     0x19,0x1                                                                                        
000930   0e08     MOVLW     0x8                CDC_BULK_BD_OUT.ADR = (byte*)&cdc_data_rx;  // Set buffer address            C:\Cdc\system\usb\class\cdc\cdc.c
000932   6f1a     MOVWF     0x1a,0x1                                                                                        
000934   0e05     MOVLW     0x5                                                                                             
000936   6f1b     MOVWF     0x1b,0x1                                                                                        
000938   0e88     MOVLW     0x88               CDC_BULK_BD_OUT.Stat._byte = _USIE|_DAT0|_DTSEN;// Set status                C:\Cdc\system\usb\class\cdc\cdc.c
00093a   6f18     MOVWF     0x18,0x1                                                                                        
                                                                                                                            C:\Cdc\system\usb\class\cdc\cdc.c
00093c   0104     MOVLB     0x4                CDC_BULK_BD_IN.ADR = (byte*)&cdc_data_tx;   // Set buffer size               C:\Cdc\system\usb\class\cdc\cdc.c
00093e   0e48     MOVLW     0x48                                                                                            
000940   6f1e     MOVWF     0x1e,0x1                                                                                        
000942   0e05     MOVLW     0x5                                                                                             
000944   6f1f     MOVWF     0x1f,0x1                                                                                        
000946   0e40     MOVLW     0x40               CDC_BULK_BD_IN.Stat._byte = _UCPU|_DAT1;    // Set buffer address            C:\Cdc\system\usb\class\cdc\cdc.c
000948   6f1c     MOVWF     0x1c,0x1                                                                                        
                                                                                                                            C:\Cdc\system\usb\class\cdc\cdc.c
00094a   0012     RETURN    0x0            }//end CDCInitEP                                                                 C:\Cdc\system\usb\class\cdc\cdc.c
                                                                                                                            C:\Cdc\system\usb\class\cdc\cdc.c
                                           /******************************************************************************  C:\Cdc\system\usb\class\cdc\cdc.c
                                            * Function:        byte getsUSBUSART(char *buffer,                              C:\Cdc\system\usb\class\cdc\cdc.c
                                            *                                    byte len)                                  C:\Cdc\system\usb\class\cdc\cdc.c
                                            *                                                                               C:\Cdc\system\usb\class\cdc\cdc.c
                                            * PreCondition:    Value of input argument 'len' should be smaller than the     C:\Cdc\system\usb\class\cdc\cdc.c
                                            *                  maximum endpoint size responsible for receiving bulk         C:\Cdc\system\usb\class\cdc\cdc.c
                                            *                  data from USB host for CDC class.                            C:\Cdc\system\usb\class\cdc\cdc.c
                                            *                  Input argument 'buffer' should point to a buffer area that   C:\Cdc\system\usb\class\cdc\cdc.c
                                            *                  is bigger or equal to the size specified by 'len'.           C:\Cdc\system\usb\class\cdc\cdc.c
                                            *                                                                               C:\Cdc\system\usb\class\cdc\cdc.c
                                            * Input:           buffer  : Pointer to where received bytes are to be stored   C:\Cdc\system\usb\class\cdc\cdc.c
                                            *                  len     : The number of bytes expected.                      C:\Cdc\system\usb\class\cdc\cdc.c
                                            *                                                                               C:\Cdc\system\usb\class\cdc\cdc.c
                                            * Output:          The number of bytes copied to buffer.                        C:\Cdc\system\usb\class\cdc\cdc.c
                                            *                                                                               C:\Cdc\system\usb\class\cdc\cdc.c
                                            * Side Effects:    Publicly accessible variable cdc_rx_len is updated with      C:\Cdc\system\usb\class\cdc\cdc.c
                                            *                  the number of bytes copied to buffer.                        C:\Cdc\system\usb\class\cdc\cdc.c
                                            *                  Once getsUSBUSART is called, subsequent retrieval of         C:\Cdc\system\usb\class\cdc\cdc.c
                                            *                  cdc_rx_len can be done by calling macro mCDCGetRxLength().   C:\Cdc\system\usb\class\cdc\cdc.c
                                            *                                                                               C:\Cdc\system\usb\class\cdc\cdc.c
                                            * Overview:        getsUSBUSART copies a string of bytes received through       C:\Cdc\system\usb\class\cdc\cdc.c
                                            *                  USB CDC Bulk OUT endpoint to a user's specified location.    C:\Cdc\system\usb\class\cdc\cdc.c
                                            *                  It is a non-blocking function. It does not wait              C:\Cdc\system\usb\class\cdc\cdc.c
                                            *                  for data if there is no data available. Instead it returns   C:\Cdc\system\usb\class\cdc\cdc.c
                                            *                  '0' to notify the caller that there is no data available.    C:\Cdc\system\usb\class\cdc\cdc.c
                                            *                                                                               C:\Cdc\system\usb\class\cdc\cdc.c
                                            * Note:            If the actual number of bytes received is larger than the    C:\Cdc\system\usb\class\cdc\cdc.c
                                            *                  number of bytes expected (len), only the expected number     C:\Cdc\system\usb\class\cdc\cdc.c
                                            *                  of bytes specified will be copied to buffer.                 C:\Cdc\system\usb\class\cdc\cdc.c
                                            *                  If the actual number of bytes received is smaller than the   C:\Cdc\system\usb\class\cdc\cdc.c
                                            *                  number of bytes expected (len), only the actual number       C:\Cdc\system\usb\class\cdc\cdc.c
                                            *                  of bytes received will be copied to buffer.                  C:\Cdc\system\usb\class\cdc\cdc.c
                                            *****************************************************************************/  C:\Cdc\system\usb\class\cdc\cdc.c
00094c   cfd9     MOVFF     0xfd9,0xfe6    byte getsUSBUSART(char *buffer, byte len)                                        C:\Cdc\system\usb\class\cdc\cdc.c
00094e   ffe6                                                                                                               
000950   cfe1     MOVFF     0xfe1,0xfd9                                                                                     
000952   ffd9                                                                                                               
                                           {                                                                                C:\Cdc\system\usb\class\cdc\cdc.c
000954   0100     MOVLB     0x0                cdc_rx_len = 0;                                                              C:\Cdc\system\usb\class\cdc\cdc.c
000956   6b80     CLRF      0x80,0x1                                                                                        
                                                                                                                            C:\Cdc\system\usb\class\cdc\cdc.c
000958   0104     MOVLB     0x4                if(!mCDCUsartRxIsBusy())                                                     C:\Cdc\system\usb\class\cdc\cdc.c
00095a   bf18     BTFSC     0x18,0x7,0x1                                                                                    
00095c   d030     BRA       0x9be                                                                                           
                                               {                                                                            C:\Cdc\system\usb\class\cdc\cdc.c
                                                   /*                                                                       C:\Cdc\system\usb\class\cdc\cdc.c
                                                    * Adjust the expected number of bytes to equal                          C:\Cdc\system\usb\class\cdc\cdc.c
                                                    * the actual number of bytes received.                                  C:\Cdc\system\usb\class\cdc\cdc.c
                                                    */                                                                      C:\Cdc\system\usb\class\cdc\cdc.c
00095e   0efc     MOVLW     0xfc                   if(len > CDC_BULK_BD_OUT.Cnt)                                            C:\Cdc\system\usb\class\cdc\cdc.c
000960   cfdb     MOVFF     0xfdb,0x2                                                                                       
000962   f002                                                                                                               
000964   5119     MOVF      0x19,0x0,0x1                                                                                    
000966   80d8     BSF       0xd8,0x0,0x0                                                                                    
000968   5402     SUBFWB    0x2,0x0,0x0                                                                                     
00096a   e203     BC        0x972                                                                                           
00096c   0efc     MOVLW     0xfc                       len = CDC_BULK_BD_OUT.Cnt;                                           C:\Cdc\system\usb\class\cdc\cdc.c
00096e   c419     MOVFF     0x419,0xfdb                                                                                     
000970   ffdb                                                                                                               
                                                                                                                            C:\Cdc\system\usb\class\cdc\cdc.c
                                                   /*                                                                       C:\Cdc\system\usb\class\cdc\cdc.c
                                                    * Copy data from dual-ram buffer to user's buffer                       C:\Cdc\system\usb\class\cdc\cdc.c
                                                    */                                                                      C:\Cdc\system\usb\class\cdc\cdc.c
000972   0100     MOVLB     0x0                    for(cdc_rx_len = 0; cdc_rx_len < len; cdc_rx_len++)                      C:\Cdc\system\usb\class\cdc\cdc.c
000974   6b80     CLRF      0x80,0x1                                                                                        
000976   0efc     MOVLW     0xfc                                                                                            
000978   50db     MOVF      0xdb,0x0,0x0                                                                                    
00097a   5d80     SUBWF     0x80,0x0,0x1                                                                                    
00097c   e219     BC        0x9b0                                                                                           
0009ac   2b80     INCF      0x80,0x1,0x1                                                                                    
0009ae   d7e3     BRA       0x976                                                                                           
00097e   5180     MOVF      0x80,0x0,0x1               buffer[cdc_rx_len] = cdc_data_rx[cdc_rx_len];                        C:\Cdc\system\usb\class\cdc\cdc.c
000980   6aea     CLRF      0xea,0x0                                                                                        
000982   0f08     ADDLW     0x8                                                                                             
000984   6ee9     MOVWF     0xe9,0x0                                                                                        
000986   0e05     MOVLW     0x5                                                                                             
000988   22ea     ADDWFC    0xea,0x1,0x0                                                                                    
00098a   50ef     MOVF      0xef,0x0,0x0                                                                                    
00098c   6ee6     MOVWF     0xe6,0x0                                                                                        
00098e   5180     MOVF      0x80,0x0,0x1                                                                                    
000990   6ee7     MOVWF     0xe7,0x0                                                                                        
000992   0efd     MOVLW     0xfd                                                                                            
000994   cfdb     MOVFF     0xfdb,0xfe9                                                                                     
000996   ffe9                                                                                                               
000998   0efe     MOVLW     0xfe                                                                                            
00099a   cfdb     MOVFF     0xfdb,0xfea                                                                                     
00099c   ffea                                                                                                               
00099e   50e7     MOVF      0xe7,0x0,0x0                                                                                    
0009a0   26e9     ADDWF     0xe9,0x1,0x0                                                                                    
0009a2   0e00     MOVLW     0x0                                                                                             
0009a4   22ea     ADDWFC    0xea,0x1,0x0                                                                                    
0009a6   52e5     MOVF      0xe5,0x1,0x0                                                                                    
0009a8   50e7     MOVF      0xe7,0x0,0x0                                                                                    
0009aa   6eef     MOVWF     0xef,0x0                                                                                        
                                                                                                                            C:\Cdc\system\usb\class\cdc\cdc.c
                                                   /*                                                                       C:\Cdc\system\usb\class\cdc\cdc.c
                                                    * Prepare dual-ram buffer for next OUT transaction                      C:\Cdc\system\usb\class\cdc\cdc.c
                                                    */                                                                      C:\Cdc\system\usb\class\cdc\cdc.c
0009b0   0104     MOVLB     0x4                    CDC_BULK_BD_OUT.Cnt = sizeof(cdc_data_rx);                               C:\Cdc\system\usb\class\cdc\cdc.c
0009b2   0e40     MOVLW     0x40                                                                                            
0009b4   6f19     MOVWF     0x19,0x1                                                                                        
0009b6   1718     ANDWF     0x18,0x1,0x1           mUSBBufferReady(CDC_BULK_BD_OUT);                                        C:\Cdc\system\usb\class\cdc\cdc.c
0009b8   7d18     BTG       0x18,0x6,0x1                                                                                    
0009ba   0e88     MOVLW     0x88                                                                                            
0009bc   1318     IORWF     0x18,0x1,0x1                                                                                    
                                               }//end if                                                                    C:\Cdc\system\usb\class\cdc\cdc.c
                                                                                                                            C:\Cdc\system\usb\class\cdc\cdc.c
0009be   0100     MOVLB     0x0                return cdc_rx_len;                                                           C:\Cdc\system\usb\class\cdc\cdc.c
0009c0   5180     MOVF      0x80,0x0,0x1                                                                                    
0009c2   d000     BRA       0x9c4                                                                                           
                                                                                                                            C:\Cdc\system\usb\class\cdc\cdc.c
0009c4   52e5     MOVF      0xe5,0x1,0x0   }//end getsUSBUSART                                                              C:\Cdc\system\usb\class\cdc\cdc.c
0009c6   cfe7     MOVFF     0xfe7,0xfd9                                                                                     
0009c8   ffd9                                                                                                               
0009ca   0012     RETURN    0x0                                                                                             
                                                                                                                            C:\Cdc\system\usb\class\cdc\cdc.c
                                           /******************************************************************************  C:\Cdc\system\usb\class\cdc\cdc.c
                                            * Function:        void putsUSBUSART(char *data)                                C:\Cdc\system\usb\class\cdc\cdc.c
                                            *                                                                               C:\Cdc\system\usb\class\cdc\cdc.c
                                            * PreCondition:    cdc_trf_state must be in the CDC_TX_READY state.             C:\Cdc\system\usb\class\cdc\cdc.c
                                            *                                                                               C:\Cdc\system\usb\class\cdc\cdc.c
                                            *                  The string of characters pointed to by 'data' must equal     C:\Cdc\system\usb\class\cdc\cdc.c
                                            *                  to or smaller than 255 bytes.                                C:\Cdc\system\usb\class\cdc\cdc.c
                                            *                                                                               C:\Cdc\system\usb\class\cdc\cdc.c
                                            * Input:           data    : Pointer to a null-terminated string of data.       C:\Cdc\system\usb\class\cdc\cdc.c
                                            *                            If a null character is not found, 255 bytes        C:\Cdc\system\usb\class\cdc\cdc.c
                                            *                            of data will be transferred to the host.           C:\Cdc\system\usb\class\cdc\cdc.c
                                            *                                                                               C:\Cdc\system\usb\class\cdc\cdc.c
                                            * Output:          None                                                         C:\Cdc\system\usb\class\cdc\cdc.c
                                            *                                                                               C:\Cdc\system\usb\class\cdc\cdc.c
                                            * Side Effects:    None                                                         C:\Cdc\system\usb\class\cdc\cdc.c
                                            *                                                                               C:\Cdc\system\usb\class\cdc\cdc.c
                                            * Overview:        putsUSBUSART writes a string of data to the USB including    C:\Cdc\system\usb\class\cdc\cdc.c
                                            *                  the null character. Use this version, 'puts', to transfer    C:\Cdc\system\usb\class\cdc\cdc.c
                                            *                  data located in data memory.                                 C:\Cdc\system\usb\class\cdc\cdc.c
                                            *                                                                               C:\Cdc\system\usb\class\cdc\cdc.c
                                            * Note:            The transfer mechanism for device-to-host(put) is more       C:\Cdc\system\usb\class\cdc\cdc.c
                                            *                  flexible than host-to-device(get). It can handle             C:\Cdc\system\usb\class\cdc\cdc.c
                                            *                  a string of data larger than the maximum size of bulk IN     C:\Cdc\system\usb\class\cdc\cdc.c
                                            *                  endpoint. A state machine is used to transfer a long         C:\Cdc\system\usb\class\cdc\cdc.c
                                            *                  string of data over multiple USB transactions.               C:\Cdc\system\usb\class\cdc\cdc.c
                                            *                  See CDCTxService() for more details.                         C:\Cdc\system\usb\class\cdc\cdc.c
                                            *****************************************************************************/  C:\Cdc\system\usb\class\cdc\cdc.c
0009cc   cfd9     MOVFF     0xfd9,0xfe6    void putsUSBUSART(char *data)                                                    C:\Cdc\system\usb\class\cdc\cdc.c
0009ce   ffe6                                                                                                               
0009d0   cfe1     MOVFF     0xfe1,0xfd9                                                                                     
0009d2   ffd9                                                                                                               
0009d4   52e6     MOVF      0xe6,0x1,0x0                                                                                    
                                           {                                                                                C:\Cdc\system\usb\class\cdc\cdc.c
                                               byte len;                                                                    C:\Cdc\system\usb\class\cdc\cdc.c
                                                                                                                            C:\Cdc\system\usb\class\cdc\cdc.c
                                               /*                                                                           C:\Cdc\system\usb\class\cdc\cdc.c
                                                * User should have checked that cdc_trf_state is in CDC_TX_READY state      C:\Cdc\system\usb\class\cdc\cdc.c
                                                * before calling this function.                                             C:\Cdc\system\usb\class\cdc\cdc.c
                                                * As a safety precaution, this fuction checks the state one more time       C:\Cdc\system\usb\class\cdc\cdc.c
                                                * to make sure it does not override any pending transactions.               C:\Cdc\system\usb\class\cdc\cdc.c
                                                *                                                                           C:\Cdc\system\usb\class\cdc\cdc.c
                                                * Currently it just quits the routine without reporting any errors back     C:\Cdc\system\usb\class\cdc\cdc.c
                                                * to the user.                                                              C:\Cdc\system\usb\class\cdc\cdc.c
                                                *                                                                           C:\Cdc\system\usb\class\cdc\cdc.c
                                                * Bottomline: User MUST make sure that mUSBUSARTIsTxTrfReady()==1           C:\Cdc\system\usb\class\cdc\cdc.c
                                                *             before calling this function!                                 C:\Cdc\system\usb\class\cdc\cdc.c
                                                * Example:                                                                  C:\Cdc\system\usb\class\cdc\cdc.c
                                                * if(mUSBUSARTIsTxTrfReady())                                               C:\Cdc\system\usb\class\cdc\cdc.c
                                                *     putsUSBUSART(pData);                                                  C:\Cdc\system\usb\class\cdc\cdc.c
                                                *                                                                           C:\Cdc\system\usb\class\cdc\cdc.c
                                                * IMPORTANT: Never use the following blocking while loop to wait:           C:\Cdc\system\usb\class\cdc\cdc.c
                                                * while(!mUSBUSARTIsTxTrfReady())                                           C:\Cdc\system\usb\class\cdc\cdc.c
                                                *     putsUSBUSART(pData);                                                  C:\Cdc\system\usb\class\cdc\cdc.c
                                                *                                                                           C:\Cdc\system\usb\class\cdc\cdc.c
                                                * The whole firmware framework is written based on cooperative              C:\Cdc\system\usb\class\cdc\cdc.c
                                                * multi-tasking and a blocking code is not acceptable.                      C:\Cdc\system\usb\class\cdc\cdc.c
                                                * Use a state machine instead.                                              C:\Cdc\system\usb\class\cdc\cdc.c
                                                */                                                                          C:\Cdc\system\usb\class\cdc\cdc.c
0009d6   0100     MOVLB     0x0                if(cdc_trf_state != CDC_TX_READY) return;                                    C:\Cdc\system\usb\class\cdc\cdc.c
0009d8   5181     MOVF      0x81,0x0,0x1                                                                                    
0009da   e001     BZ        0x9de                                                                                           
0009dc   d02f     BRA       0xa3c                                                                                           
                                                                                                                            C:\Cdc\system\usb\class\cdc\cdc.c
                                               /*                                                                           C:\Cdc\system\usb\class\cdc\cdc.c
                                                * While loop counts the number of bytes to send including the               C:\Cdc\system\usb\class\cdc\cdc.c
                                                * null character.                                                           C:\Cdc\system\usb\class\cdc\cdc.c
                                                */                                                                          C:\Cdc\system\usb\class\cdc\cdc.c
0009de   6adf     CLRF      0xdf,0x0           len = 0;                                                                     C:\Cdc\system\usb\class\cdc\cdc.c
                                               do                                                                           C:\Cdc\system\usb\class\cdc\cdc.c
                                               {                                                                            C:\Cdc\system\usb\class\cdc\cdc.c
0009e0   2adf     INCF      0xdf,0x1,0x0           len++;                                                                   C:\Cdc\system\usb\class\cdc\cdc.c
0009e2   50df     MOVF      0xdf,0x0,0x0           if(len == 255) break;       // Break loop once max len is reached.       C:\Cdc\system\usb\class\cdc\cdc.c
0009e4   6e02     MOVWF     0x2,0x0                                                                                         
0009e6   6a03     CLRF      0x3,0x0                                                                                         
0009e8   0eff     MOVLW     0xff                                                                                            
0009ea   1802     XORWF     0x2,0x0,0x0                                                                                     
0009ec   e101     BNZ       0x9f0                                                                                           
0009ee   5003     MOVF      0x3,0x0,0x0                                                                                     
0009f0   e101     BNZ       0x9f4                                                                                           
0009f2   d00b     BRA       0xa0a                                                                                           
0009f4   0efd     MOVLW     0xfd               }while(*data++);                                                             C:\Cdc\system\usb\class\cdc\cdc.c
0009f6   cfdb     MOVFF     0xfdb,0xfe9                                                                                     
0009f8   ffe9                                                                                                               
0009fa   2adb     INCF      0xdb,0x1,0x0                                                                                    
0009fc   0efe     MOVLW     0xfe                                                                                            
0009fe   cfdb     MOVFF     0xfdb,0xfea                                                                                     
000a00   ffea                                                                                                               
000a02   e301     BNC       0xa06                                                                                           
000a04   2adb     INCF      0xdb,0x1,0x0                                                                                    
000a06   50ef     MOVF      0xef,0x0,0x0                                                                                    
000a08   e1eb     BNZ       0x9e0                                                                                           
                                                                                                                            C:\Cdc\system\usb\class\cdc\cdc.c
                                               /*                                                                           C:\Cdc\system\usb\class\cdc\cdc.c
                                                * Re-adjust pointer to its initial location                                 C:\Cdc\system\usb\class\cdc\cdc.c
                                                */                                                                          C:\Cdc\system\usb\class\cdc\cdc.c
000a0a   50df     MOVF      0xdf,0x0,0x0       data-=len;                                                                   C:\Cdc\system\usb\class\cdc\cdc.c
000a0c   6e02     MOVWF     0x2,0x0                                                                                         
000a0e   6a03     CLRF      0x3,0x0                                                                                         
000a10   50d9     MOVF      0xd9,0x0,0x0                                                                                    
000a12   0ffd     ADDLW     0xfd                                                                                            
000a14   6ee9     MOVWF     0xe9,0x0                                                                                        
000a16   0eff     MOVLW     0xff                                                                                            
000a18   20da     ADDWFC    0xda,0x0,0x0                                                                                    
000a1a   6eea     MOVWF     0xea,0x0                                                                                        
000a1c   5002     MOVF      0x2,0x0,0x0                                                                                     
000a1e   5eee     SUBWF     0xee,0x1,0x0                                                                                    
000a20   5003     MOVF      0x3,0x0,0x0                                                                                     
000a22   5aed     SUBWFB    0xed,0x1,0x0                                                                                    
                                                                                                                            C:\Cdc\system\usb\class\cdc\cdc.c
                                               /*                                                                           C:\Cdc\system\usb\class\cdc\cdc.c
                                                * Second piece of information (length of data to send) is ready.            C:\Cdc\system\usb\class\cdc\cdc.c
                                                * Call mUSBUSARTTxRam to setup the transfer.                                C:\Cdc\system\usb\class\cdc\cdc.c
                                                * The actual transfer process will be handled by CDCTxService(),            C:\Cdc\system\usb\class\cdc\cdc.c
                                                * which should be called once per Main Program loop.                        C:\Cdc\system\usb\class\cdc\cdc.c
                                                */                                                                          C:\Cdc\system\usb\class\cdc\cdc.c
000a24   0efd     MOVLW     0xfd               mUSBUSARTTxRam((byte*)data,len);     // See cdc.h                            C:\Cdc\system\usb\class\cdc\cdc.c
000a26   cfdb     MOVFF     0xfdb,0x82                                                                                      
000a28   f082                                                                                                               
000a2a   0efe     MOVLW     0xfe                                                                                            
000a2c   cfdb     MOVFF     0xfdb,0x83                                                                                      
000a2e   f083                                                                                                               
000a30   cfdf     MOVFF     0xfdf,0x86                                                                                      
000a32   f086                                                                                                               
000a34   0100     MOVLB     0x0                                                                                             
000a36   6b87     CLRF      0x87,0x1                                                                                        
000a38   0e01     MOVLW     0x1                                                                                             
000a3a   6f81     MOVWF     0x81,0x1                                                                                        
000a3c   52e5     MOVF      0xe5,0x1,0x0   }//end putsUSBUSART                                                              C:\Cdc\system\usb\class\cdc\cdc.c
000a3e   52e5     MOVF      0xe5,0x1,0x0                                                                                    
000a40   cfe7     MOVFF     0xfe7,0xfd9                                                                                     
000a42   ffd9                                                                                                               
000a44   0012     RETURN    0x0                                                                                             
                                                                                                                            C:\Cdc\system\usb\class\cdc\cdc.c
                                           /******************************************************************************  C:\Cdc\system\usb\class\cdc\cdc.c
                                            * Function:        void putrsUSBUSART(const rom char *data)                     C:\Cdc\system\usb\class\cdc\cdc.c
                                            *                                                                               C:\Cdc\system\usb\class\cdc\cdc.c
                                            * PreCondition:    cdc_trf_state must be in the CDC_TX_READY state.             C:\Cdc\system\usb\class\cdc\cdc.c
                                            *                                                                               C:\Cdc\system\usb\class\cdc\cdc.c
                                            *                  The string of characters pointed to by 'data' must equal     C:\Cdc\system\usb\class\cdc\cdc.c
                                            *                  to or smaller than 255 bytes.                                C:\Cdc\system\usb\class\cdc\cdc.c
                                            *                                                                               C:\Cdc\system\usb\class\cdc\cdc.c
                                            * Input:           data    : Pointer to a null-terminated string of data.       C:\Cdc\system\usb\class\cdc\cdc.c
                                            *                            If a null character is not found, 255 bytes        C:\Cdc\system\usb\class\cdc\cdc.c
                                            *                            of data will be transferred to the host.           C:\Cdc\system\usb\class\cdc\cdc.c
                                            *                                                                               C:\Cdc\system\usb\class\cdc\cdc.c
                                            * Output:          None                                                         C:\Cdc\system\usb\class\cdc\cdc.c
                                            *                                                                               C:\Cdc\system\usb\class\cdc\cdc.c
                                            * Side Effects:    None                                                         C:\Cdc\system\usb\class\cdc\cdc.c
                                            *                                                                               C:\Cdc\system\usb\class\cdc\cdc.c
                                            * Overview:        putrsUSBUSART writes a string of data to the USB including   C:\Cdc\system\usb\class\cdc\cdc.c
                                            *                  the null character. Use this version, 'putrs', to transfer   C:\Cdc\system\usb\class\cdc\cdc.c
                                            *                  data literals and data located in program memory.            C:\Cdc\system\usb\class\cdc\cdc.c
                                            *                                                                               C:\Cdc\system\usb\class\cdc\cdc.c
                                            * Note:            The transfer mechanism for device-to-host(put) is more       C:\Cdc\system\usb\class\cdc\cdc.c
                                            *                  flexible than host-to-device(get). It can handle             C:\Cdc\system\usb\class\cdc\cdc.c
                                            *                  a string of data larger than the maximum size of bulk IN     C:\Cdc\system\usb\class\cdc\cdc.c
                                            *                  endpoint. A state machine is used to transfer a long         C:\Cdc\system\usb\class\cdc\cdc.c
                                            *                  string of data over multiple USB transactions.               C:\Cdc\system\usb\class\cdc\cdc.c
                                            *                  See CDCTxService() for more details.                         C:\Cdc\system\usb\class\cdc\cdc.c
                                            *****************************************************************************/  C:\Cdc\system\usb\class\cdc\cdc.c
000a46   cfd9     MOVFF     0xfd9,0xfe6    void putrsUSBUSART(const rom char *data)                                         C:\Cdc\system\usb\class\cdc\cdc.c
000a48   ffe6                                                                                                               
000a4a   cfe1     MOVFF     0xfe1,0xfd9                                                                                     
000a4c   ffd9                                                                                                               
000a4e   52e6     MOVF      0xe6,0x1,0x0                                                                                    
                                           {                                                                                C:\Cdc\system\usb\class\cdc\cdc.c
                                               byte len;                                                                    C:\Cdc\system\usb\class\cdc\cdc.c
                                                                                                                            C:\Cdc\system\usb\class\cdc\cdc.c
                                               /*                                                                           C:\Cdc\system\usb\class\cdc\cdc.c
                                                * User should have checked that cdc_trf_state is in CDC_TX_READY state      C:\Cdc\system\usb\class\cdc\cdc.c
                                                * before calling this function.                                             C:\Cdc\system\usb\class\cdc\cdc.c
                                                * As a safety precaution, this fuction checks the state one more time       C:\Cdc\system\usb\class\cdc\cdc.c
                                                * to make sure it does not override any pending transactions.               C:\Cdc\system\usb\class\cdc\cdc.c
                                                *                                                                           C:\Cdc\system\usb\class\cdc\cdc.c
                                                * Currently it just quits the routine without reporting any errors back     C:\Cdc\system\usb\class\cdc\cdc.c
                                                * to the user.                                                              C:\Cdc\system\usb\class\cdc\cdc.c
                                                *                                                                           C:\Cdc\system\usb\class\cdc\cdc.c
                                                * Bottomline: User MUST make sure that mUSBUSARTIsTxTrfReady()              C:\Cdc\system\usb\class\cdc\cdc.c
                                                *             before calling this function!                                 C:\Cdc\system\usb\class\cdc\cdc.c
                                                * Example:                                                                  C:\Cdc\system\usb\class\cdc\cdc.c
                                                * if(mUSBUSARTIsTxTrfReady())                                               C:\Cdc\system\usb\class\cdc\cdc.c
                                                *     putsUSBUSART(pData);                                                  C:\Cdc\system\usb\class\cdc\cdc.c
                                                *                                                                           C:\Cdc\system\usb\class\cdc\cdc.c
                                                * IMPORTANT: Never use the following blocking while loop to wait:           C:\Cdc\system\usb\class\cdc\cdc.c
                                                * while(cdc_trf_state != CDC_TX_READY)                                      C:\Cdc\system\usb\class\cdc\cdc.c
                                                *     putsUSBUSART(pData);                                                  C:\Cdc\system\usb\class\cdc\cdc.c
                                                *                                                                           C:\Cdc\system\usb\class\cdc\cdc.c
                                                * The whole firmware framework is written based on cooperative              C:\Cdc\system\usb\class\cdc\cdc.c
                                                * multi-tasking and a blocking code is not acceptable.                      C:\Cdc\system\usb\class\cdc\cdc.c
                                                * Use a state machine instead.                                              C:\Cdc\system\usb\class\cdc\cdc.c
                                                */                                                                          C:\Cdc\system\usb\class\cdc\cdc.c
000a50   0100     MOVLB     0x0                if(cdc_trf_state != CDC_TX_READY) return;                                    C:\Cdc\system\usb\class\cdc\cdc.c
000a52   5181     MOVF      0x81,0x0,0x1                                                                                    
000a54   e001     BZ        0xa58                                                                                           
000a56   d030     BRA       0xab8                                                                                           
                                                                                                                            C:\Cdc\system\usb\class\cdc\cdc.c
                                               /*                                                                           C:\Cdc\system\usb\class\cdc\cdc.c
                                                * While loop counts the number of bytes to send including the               C:\Cdc\system\usb\class\cdc\cdc.c
                                                * null character.                                                           C:\Cdc\system\usb\class\cdc\cdc.c
                                                */                                                                          C:\Cdc\system\usb\class\cdc\cdc.c
000a58   6adf     CLRF      0xdf,0x0           len = 0;                                                                     C:\Cdc\system\usb\class\cdc\cdc.c
                                               do                                                                           C:\Cdc\system\usb\class\cdc\cdc.c
                                               {                                                                            C:\Cdc\system\usb\class\cdc\cdc.c
000a5a   2adf     INCF      0xdf,0x1,0x0           len++;                                                                   C:\Cdc\system\usb\class\cdc\cdc.c
000a5c   50df     MOVF      0xdf,0x0,0x0           if(len == 255) break;       // Break loop once max len is reached.       C:\Cdc\system\usb\class\cdc\cdc.c
000a5e   6e02     MOVWF     0x2,0x0                                                                                         
000a60   6a03     CLRF      0x3,0x0                                                                                         
000a62   0eff     MOVLW     0xff                                                                                            
000a64   1802     XORWF     0x2,0x0,0x0                                                                                     
000a66   e101     BNZ       0xa6a                                                                                           
000a68   5003     MOVF      0x3,0x0,0x0                                                                                     
000a6a   e101     BNZ       0xa6e                                                                                           
000a6c   d00c     BRA       0xa86                                                                                           
000a6e   0efd     MOVLW     0xfd               }while(*data++);                                                             C:\Cdc\system\usb\class\cdc\cdc.c
000a70   cfdb     MOVFF     0xfdb,0xff6                                                                                     
000a72   fff6                                                                                                               
000a74   2adb     INCF      0xdb,0x1,0x0                                                                                    
000a76   0efe     MOVLW     0xfe                                                                                            
000a78   cfdb     MOVFF     0xfdb,0xff7                                                                                     
000a7a   fff7                                                                                                               
000a7c   e301     BNC       0xa80                                                                                           
000a7e   2adb     INCF      0xdb,0x1,0x0                                                                                    
000a80   0008     TBLRD                                                                                                     
000a82   50f5     MOVF      0xf5,0x0,0x0                                                                                    
000a84   e1ea     BNZ       0xa5a                                                                                           
                                                                                                                            C:\Cdc\system\usb\class\cdc\cdc.c
                                               /*                                                                           C:\Cdc\system\usb\class\cdc\cdc.c
                                                * Re-adjust pointer to its initial location                                 C:\Cdc\system\usb\class\cdc\cdc.c
                                                */                                                                          C:\Cdc\system\usb\class\cdc\cdc.c
000a86   50df     MOVF      0xdf,0x0,0x0       data-=len;                                                                   C:\Cdc\system\usb\class\cdc\cdc.c
000a88   6e02     MOVWF     0x2,0x0                                                                                         
000a8a   6a03     CLRF      0x3,0x0                                                                                         
000a8c   50d9     MOVF      0xd9,0x0,0x0                                                                                    
000a8e   0ffd     ADDLW     0xfd                                                                                            
000a90   6ee9     MOVWF     0xe9,0x0                                                                                        
000a92   0eff     MOVLW     0xff                                                                                            
000a94   20da     ADDWFC    0xda,0x0,0x0                                                                                    
000a96   6eea     MOVWF     0xea,0x0                                                                                        
000a98   5002     MOVF      0x2,0x0,0x0                                                                                     
000a9a   5eee     SUBWF     0xee,0x1,0x0                                                                                    
000a9c   5003     MOVF      0x3,0x0,0x0                                                                                     
000a9e   5aed     SUBWFB    0xed,0x1,0x0                                                                                    
                                                                                                                            C:\Cdc\system\usb\class\cdc\cdc.c
                                               /*                                                                           C:\Cdc\system\usb\class\cdc\cdc.c
                                                * Second piece of information (length of data to send) is ready.            C:\Cdc\system\usb\class\cdc\cdc.c
                                                * Call mUSBUSARTTxRom to setup the transfer.                                C:\Cdc\system\usb\class\cdc\cdc.c
                                                * The actual transfer process will be handled by CDCTxService(),            C:\Cdc\system\usb\class\cdc\cdc.c
                                                * which should be called once per Main Program loop.                        C:\Cdc\system\usb\class\cdc\cdc.c
                                                */                                                                          C:\Cdc\system\usb\class\cdc\cdc.c
000aa0   0efd     MOVLW     0xfd               mUSBUSARTTxRom((rom byte*)data,len); // See cdc.h                            C:\Cdc\system\usb\class\cdc\cdc.c
000aa2   cfdb     MOVFF     0xfdb,0x82                                                                                      
000aa4   f082                                                                                                               
000aa6   0efe     MOVLW     0xfe                                                                                            
000aa8   cfdb     MOVFF     0xfdb,0x83                                                                                      
000aaa   f083                                                                                                               
000aac   cfdf     MOVFF     0xfdf,0x86                                                                                      
000aae   f086                                                                                                               
000ab0   0100     MOVLB     0x0                                                                                             
000ab2   0e01     MOVLW     0x1                                                                                             
000ab4   6f87     MOVWF     0x87,0x1                                                                                        
000ab6   6f81     MOVWF     0x81,0x1                                                                                        
                                                                                                                            C:\Cdc\system\usb\class\cdc\cdc.c
000ab8   52e5     MOVF      0xe5,0x1,0x0   }//end putrsUSBUSART                                                             C:\Cdc\system\usb\class\cdc\cdc.c
000aba   52e5     MOVF      0xe5,0x1,0x0                                                                                    
000abc   cfe7     MOVFF     0xfe7,0xfd9                                                                                     
000abe   ffd9                                                                                                               
000ac0   0012     RETURN    0x0                                                                                             
                                                                                                                            C:\Cdc\system\usb\class\cdc\cdc.c
                                           /******************************************************************************  C:\Cdc\system\usb\class\cdc\cdc.c
                                            * Function:        void CDCTxService(void)                                      C:\Cdc\system\usb\class\cdc\cdc.c
                                            *                                                                               C:\Cdc\system\usb\class\cdc\cdc.c
                                            * PreCondition:    None                                                         C:\Cdc\system\usb\class\cdc\cdc.c
                                            *                                                                               C:\Cdc\system\usb\class\cdc\cdc.c
                                            * Input:           None                                                         C:\Cdc\system\usb\class\cdc\cdc.c
                                            *                                                                               C:\Cdc\system\usb\class\cdc\cdc.c
                                            * Output:          None                                                         C:\Cdc\system\usb\class\cdc\cdc.c
                                            *                                                                               C:\Cdc\system\usb\class\cdc\cdc.c
                                            * Side Effects:    None                                                         C:\Cdc\system\usb\class\cdc\cdc.c
                                            *                                                                               C:\Cdc\system\usb\class\cdc\cdc.c
                                            * Overview:        CDCTxService handles device-to-host transaction(s).          C:\Cdc\system\usb\class\cdc\cdc.c
                                            *                  This function should be called once per Main Program loop.   C:\Cdc\system\usb\class\cdc\cdc.c
                                            *                                                                               C:\Cdc\system\usb\class\cdc\cdc.c
                                            * Note:            None                                                         C:\Cdc\system\usb\class\cdc\cdc.c
                                            *****************************************************************************/  C:\Cdc\system\usb\class\cdc\cdc.c
000ac2   cfd9     MOVFF     0xfd9,0xfe6    void CDCTxService(void)                                                          C:\Cdc\system\usb\class\cdc\cdc.c
000ac4   ffe6                                                                                                               
000ac6   cfe1     MOVFF     0xfe1,0xfd9                                                                                     
000ac8   ffd9                                                                                                               
000aca   52e6     MOVF      0xe6,0x1,0x0                                                                                    
                                           {                                                                                C:\Cdc\system\usb\class\cdc\cdc.c
                                               byte byte_to_send;                                                           C:\Cdc\system\usb\class\cdc\cdc.c
                                                                                                                            C:\Cdc\system\usb\class\cdc\cdc.c
000acc   0104     MOVLB     0x4                if(mCDCUsartTxIsBusy()) return;                                              C:\Cdc\system\usb\class\cdc\cdc.c
000ace   bf1c     BTFSC     0x1c,0x7,0x1                                                                                    
000ad0   d06b     BRA       0xba8                                                                                           
                                               /*                                                                           C:\Cdc\system\usb\class\cdc\cdc.c
                                                * Completing stage is necessary while [ mCDCUSartTxIsBusy()==1 ].           C:\Cdc\system\usb\class\cdc\cdc.c
                                                * By having this stage, user can always check cdc_trf_state,                C:\Cdc\system\usb\class\cdc\cdc.c
                                                * and not having to call mCDCUsartTxIsBusy() directly.                      C:\Cdc\system\usb\class\cdc\cdc.c
                                                */                                                                          C:\Cdc\system\usb\class\cdc\cdc.c
000ad2   0e03     MOVLW     0x3                if(cdc_trf_state == CDC_TX_COMPLETING)                                       C:\Cdc\system\usb\class\cdc\cdc.c
000ad4   0100     MOVLB     0x0                                                                                             
000ad6   5d81     SUBWF     0x81,0x0,0x1                                                                                    
000ad8   e101     BNZ       0xadc                                                                                           
000ada   6b81     CLRF      0x81,0x1               cdc_trf_state = CDC_TX_READY;                                            C:\Cdc\system\usb\class\cdc\cdc.c
                                                                                                                            C:\Cdc\system\usb\class\cdc\cdc.c
                                               /*                                                                           C:\Cdc\system\usb\class\cdc\cdc.c
                                                * If CDC_TX_READY state, nothing to do, just return.                        C:\Cdc\system\usb\class\cdc\cdc.c
                                                */                                                                          C:\Cdc\system\usb\class\cdc\cdc.c
000adc   5181     MOVF      0x81,0x0,0x1       if(cdc_trf_state == CDC_TX_READY) return;                                    C:\Cdc\system\usb\class\cdc\cdc.c
000ade   e101     BNZ       0xae2                                                                                           
000ae0   d063     BRA       0xba8                                                                                           
                                                                                                                            C:\Cdc\system\usb\class\cdc\cdc.c
                                               /*                                                                           C:\Cdc\system\usb\class\cdc\cdc.c
                                                * If CDC_TX_BUSY_ZLP state, send zero length packet                         C:\Cdc\system\usb\class\cdc\cdc.c
                                                */                                                                          C:\Cdc\system\usb\class\cdc\cdc.c
000ae2   0e02     MOVLW     0x2                if(cdc_trf_state == CDC_TX_BUSY_ZLP)                                         C:\Cdc\system\usb\class\cdc\cdc.c
000ae4   5d81     SUBWF     0x81,0x0,0x1                                                                                    
000ae6   e106     BNZ       0xaf4                                                                                           
                                               {                                                                            C:\Cdc\system\usb\class\cdc\cdc.c
000ae8   0104     MOVLB     0x4                    CDC_BULK_BD_IN.Cnt = 0;                                                  C:\Cdc\system\usb\class\cdc\cdc.c
000aea   6b1d     CLRF      0x1d,0x1                                                                                        
000aec   0100     MOVLB     0x0                    cdc_trf_state = CDC_TX_COMPLETING;                                       C:\Cdc\system\usb\class\cdc\cdc.c
000aee   0e03     MOVLW     0x3                                                                                             
000af0   6f81     MOVWF     0x81,0x1                                                                                        
                                               }                                                                            C:\Cdc\system\usb\class\cdc\cdc.c
000af2   d054     BRA       0xb9c              else if(cdc_trf_state == CDC_TX_BUSY)                                        C:\Cdc\system\usb\class\cdc\cdc.c
000af4   0581     DECF      0x81,0x0,0x1                                                                                    
000af6   e152     BNZ       0xb9c                                                                                           
                                               {                                                                            C:\Cdc\system\usb\class\cdc\cdc.c
                                                   /*                                                                       C:\Cdc\system\usb\class\cdc\cdc.c
                                                    * First, have to figure out how many byte of data to send.              C:\Cdc\system\usb\class\cdc\cdc.c
                                                    */                                                                      C:\Cdc\system\usb\class\cdc\cdc.c
000af8   0e40     MOVLW     0x40               	if(cdc_tx_len > sizeof(cdc_data_tx))                                        C:\Cdc\system\usb\class\cdc\cdc.c
000afa   6e02     MOVWF     0x2,0x0                                                                                         
000afc   6a03     CLRF      0x3,0x0                                                                                         
000afe   5186     MOVF      0x86,0x0,0x1                                                                                    
000b00   5c02     SUBWF     0x2,0x0,0x0                                                                                     
000b02   0e00     MOVLW     0x0                                                                                             
000b04   5803     SUBWFB    0x3,0x0,0x0                                                                                     
000b06   e203     BC        0xb0e                                                                                           
000b08   0e40     MOVLW     0x40               	    byte_to_send = sizeof(cdc_data_tx);                                     C:\Cdc\system\usb\class\cdc\cdc.c
000b0a   6edf     MOVWF     0xdf,0x0                                                                                        
000b0c   d002     BRA       0xb12              	else                                                                        C:\Cdc\system\usb\class\cdc\cdc.c
000b0e   c086     MOVFF     0x86,0xfdf         	    byte_to_send = cdc_tx_len;                                              C:\Cdc\system\usb\class\cdc\cdc.c
000b10   ffdf                                                                                                               
                                                                                                                            C:\Cdc\system\usb\class\cdc\cdc.c
                                                   /*                                                                       C:\Cdc\system\usb\class\cdc\cdc.c
                                                    * Next, load the number of bytes to send to Cnt in buffer descriptor    C:\Cdc\system\usb\class\cdc\cdc.c
                                                    */                                                                      C:\Cdc\system\usb\class\cdc\cdc.c
000b12   cfdf     MOVFF     0xfdf,0x41d            CDC_BULK_BD_IN.Cnt = byte_to_send;                                       C:\Cdc\system\usb\class\cdc\cdc.c
000b14   f41d                                                                                                               
                                                                                                                            C:\Cdc\system\usb\class\cdc\cdc.c
                                                   /*                                                                       C:\Cdc\system\usb\class\cdc\cdc.c
                                                    * Subtract the number of bytes just about to be sent from the total.    C:\Cdc\system\usb\class\cdc\cdc.c
                                                    */                                                                      C:\Cdc\system\usb\class\cdc\cdc.c
000b16   50df     MOVF      0xdf,0x0,0x0       	cdc_tx_len = cdc_tx_len - byte_to_send;                                     C:\Cdc\system\usb\class\cdc\cdc.c
000b18   5d86     SUBWF     0x86,0x0,0x1                                                                                    
000b1a   6f86     MOVWF     0x86,0x1                                                                                        
                                               	                                                                            C:\Cdc\system\usb\class\cdc\cdc.c
000b1c   0e48     MOVLW     0x48                   pCDCDst.bRam = (byte*)&cdc_data_tx; // Set destination pointer           C:\Cdc\system\usb\class\cdc\cdc.c
000b1e   6f84     MOVWF     0x84,0x1                                                                                        
000b20   0e05     MOVLW     0x5                                                                                             
000b22   6f85     MOVWF     0x85,0x1                                                                                        
                                                                                                                            C:\Cdc\system\usb\class\cdc\cdc.c
000b24   0587     DECF      0x87,0x0,0x1           if(cdc_mem_type == _ROM)            // Determine type of memory source   C:\Cdc\system\usb\class\cdc\cdc.c
000b26   e115     BNZ       0xb52                                                                                           
                                                   {                                                                        C:\Cdc\system\usb\class\cdc\cdc.c
000b28   50df     MOVF      0xdf,0x0,0x0               while(byte_to_send)                                                  C:\Cdc\system\usb\class\cdc\cdc.c
000b2a   e012     BZ        0xb50                                                                                           
000b4e   d7ec     BRA       0xb28                                                                                           
                                                       {                                                                    C:\Cdc\system\usb\class\cdc\cdc.c
000b2c   c082     MOVFF     0x82,0xff6                     *pCDCDst.bRam = *pCDCSrc.bRom;                                   C:\Cdc\system\usb\class\cdc\cdc.c
000b2e   fff6                                                                                                               
000b30   c083     MOVFF     0x83,0xff7                                                                                      
000b32   fff7                                                                                                               
000b34   0008     TBLRD                                                                                                     
000b36   50f5     MOVF      0xf5,0x0,0x0                                                                                    
000b38   c084     MOVFF     0x84,0xfe9                                                                                      
000b3a   ffe9                                                                                                               
000b3c   c085     MOVFF     0x85,0xfea                                                                                      
000b3e   ffea                                                                                                               
000b40   6eef     MOVWF     0xef,0x0                                                                                        
000b42   2b84     INCF      0x84,0x1,0x1                   pCDCDst.bRam++;                                                  C:\Cdc\system\usb\class\cdc\cdc.c
000b44   0e00     MOVLW     0x0                                                                                             
000b46   2385     ADDWFC    0x85,0x1,0x1                                                                                    
000b48   2b82     INCF      0x82,0x1,0x1                   pCDCSrc.bRom++;                                                  C:\Cdc\system\usb\class\cdc\cdc.c
000b4a   2383     ADDWFC    0x83,0x1,0x1                                                                                    
000b4c   06df     DECF      0xdf,0x1,0x0                   byte_to_send--;                                                  C:\Cdc\system\usb\class\cdc\cdc.c
                                                       }//end while(byte_to_send)                                           C:\Cdc\system\usb\class\cdc\cdc.c
                                                   }                                                                        C:\Cdc\system\usb\class\cdc\cdc.c
000b50   d013     BRA       0xb78                  else // _RAM                                                             C:\Cdc\system\usb\class\cdc\cdc.c
                                                   {                                                                        C:\Cdc\system\usb\class\cdc\cdc.c
000b52   50df     MOVF      0xdf,0x0,0x0               while(byte_to_send)                                                  C:\Cdc\system\usb\class\cdc\cdc.c
000b54   e011     BZ        0xb78                                                                                           
000b76   d7ed     BRA       0xb52                                                                                           
                                                       {                                                                    C:\Cdc\system\usb\class\cdc\cdc.c
000b56   c082     MOVFF     0x82,0xfe9                     *pCDCDst.bRam = *pCDCSrc.bRam;                                   C:\Cdc\system\usb\class\cdc\cdc.c
000b58   ffe9                                                                                                               
000b5a   c083     MOVFF     0x83,0xfea                                                                                      
000b5c   ffea                                                                                                               
000b5e   50ef     MOVF      0xef,0x0,0x0                                                                                    
000b60   c084     MOVFF     0x84,0xfe9                                                                                      
000b62   ffe9                                                                                                               
000b64   c085     MOVFF     0x85,0xfea                                                                                      
000b66   ffea                                                                                                               
000b68   6eef     MOVWF     0xef,0x0                                                                                        
000b6a   2b84     INCF      0x84,0x1,0x1                   pCDCDst.bRam++;                                                  C:\Cdc\system\usb\class\cdc\cdc.c
000b6c   0e00     MOVLW     0x0                                                                                             
000b6e   2385     ADDWFC    0x85,0x1,0x1                                                                                    
000b70   2b82     INCF      0x82,0x1,0x1                   pCDCSrc.bRam++;                                                  C:\Cdc\system\usb\class\cdc\cdc.c
000b72   2383     ADDWFC    0x83,0x1,0x1                                                                                    
000b74   06df     DECF      0xdf,0x1,0x0                   byte_to_send--;                                                  C:\Cdc\system\usb\class\cdc\cdc.c
                                                       }//end while(byte_to_send._word)                                     C:\Cdc\system\usb\class\cdc\cdc.c
                                                   }//end if(cdc_mem_type...)                                               C:\Cdc\system\usb\class\cdc\cdc.c
                                                                                                                            C:\Cdc\system\usb\class\cdc\cdc.c
                                                   /*                                                                       C:\Cdc\system\usb\class\cdc\cdc.c
                                                    * Lastly, determine if a zero length packet state is necessary.         C:\Cdc\system\usb\class\cdc\cdc.c
                                                    * See explanation in USB Specification 2.0: Section 5.8.3               C:\Cdc\system\usb\class\cdc\cdc.c
                                                    */                                                                      C:\Cdc\system\usb\class\cdc\cdc.c
000b78   5186     MOVF      0x86,0x0,0x1           if(cdc_tx_len == 0)                                                      C:\Cdc\system\usb\class\cdc\cdc.c
000b7a   e110     BNZ       0xb9c                                                                                           
                                                   {                                                                        C:\Cdc\system\usb\class\cdc\cdc.c
000b7c   0104     MOVLB     0x4                        if(CDC_BULK_BD_IN.Cnt == sizeof(cdc_data_tx))                        C:\Cdc\system\usb\class\cdc\cdc.c
000b7e   511d     MOVF      0x1d,0x0,0x1                                                                                    
000b80   6e02     MOVWF     0x2,0x0                                                                                         
000b82   6a03     CLRF      0x3,0x0                                                                                         
000b84   0e40     MOVLW     0x40                                                                                            
000b86   1802     XORWF     0x2,0x0,0x0                                                                                     
000b88   e101     BNZ       0xb8c                                                                                           
000b8a   5003     MOVF      0x3,0x0,0x0                                                                                     
000b8c   e104     BNZ       0xb96                                                                                           
000b8e   0100     MOVLB     0x0                            cdc_trf_state = CDC_TX_BUSY_ZLP;                                 C:\Cdc\system\usb\class\cdc\cdc.c
000b90   0e02     MOVLW     0x2                                                                                             
000b92   6f81     MOVWF     0x81,0x1                                                                                        
000b94   d003     BRA       0xb9c                      else                                                                 C:\Cdc\system\usb\class\cdc\cdc.c
000b96   0100     MOVLB     0x0                            cdc_trf_state = CDC_TX_COMPLETING;                               C:\Cdc\system\usb\class\cdc\cdc.c
000b98   0e03     MOVLW     0x3                                                                                             
000b9a   6f81     MOVWF     0x81,0x1                                                                                        
                                                   }//end if(cdc_tx_len...)                                                 C:\Cdc\system\usb\class\cdc\cdc.c
                                                                                                                            C:\Cdc\system\usb\class\cdc\cdc.c
                                               }//end if(cdc_tx_sate == CDC_TX_BUSY)                                        C:\Cdc\system\usb\class\cdc\cdc.c
                                                                                                                            C:\Cdc\system\usb\class\cdc\cdc.c
                                               /*                                                                           C:\Cdc\system\usb\class\cdc\cdc.c
                                                * Both CDC_TX_BUSY and CDC_TX_BUSY_ZLP states use the following macro       C:\Cdc\system\usb\class\cdc\cdc.c
                                                */                                                                          C:\Cdc\system\usb\class\cdc\cdc.c
000b9c   0e40     MOVLW     0x40               mUSBBufferReady(CDC_BULK_BD_IN);                                             C:\Cdc\system\usb\class\cdc\cdc.c
000b9e   0104     MOVLB     0x4                                                                                             
000ba0   171c     ANDWF     0x1c,0x1,0x1                                                                                    
000ba2   7d1c     BTG       0x1c,0x6,0x1                                                                                    
000ba4   0e88     MOVLW     0x88                                                                                            
000ba6   131c     IORWF     0x1c,0x1,0x1                                                                                    
                                                                                                                            C:\Cdc\system\usb\class\cdc\cdc.c
000ba8   52e5     MOVF      0xe5,0x1,0x0   }//end CDCTxService                                                              C:\Cdc\system\usb\class\cdc\cdc.c
000baa   52e5     MOVF      0xe5,0x1,0x0                                                                                    
000bac   cfe7     MOVFF     0xfe7,0xfd9                                                                                     
000bae   ffd9                                                                                                               
000bb0   0012     RETURN    0x0                                                                                             
                                                                                                                            C:\Cdc\system\usb\class\cdc\cdc.c
                                           #endif //USB_USE_CDC                                                             C:\Cdc\system\usb\class\cdc\cdc.c
                                                                                                                            C:\Cdc\system\usb\class\cdc\cdc.c
                                           /** EOF cdc.c ****************************************************************/  C:\Cdc\system\usb\class\cdc\cdc.c
                                                   LIST P=18F4550                                                           C:\MCC18\SRC\TRADIT~1\PROC\p18f4550.asm
                                                   LIST                                                                     C:\MCC18\SRC\TRADIT~1\PROC\p18f4550.asm
                                                   END                                                                      C:\MCC18\SRC\TRADIT~1\PROC\p18f4550.asm
                                           ;	RCS Header $Id: cmath18.asm,v 1.5 2006/01/12 23:16:38 rhinec Exp $             C:\MCC18\SRC\TRADIT~1\MATH\cmath18.asm
                                                                                                                            C:\MCC18\SRC\TRADIT~1\MATH\cmath18.asm
                                           ;       CMATH18 DATA DEFINITION FILE                                             C:\MCC18\SRC\TRADIT~1\MATH\cmath18.asm
                                                                                                                            C:\MCC18\SRC\TRADIT~1\MATH\cmath18.asm
                                           ;******************************************************************************* C:\MCC18\SRC\TRADIT~1\MATH\cmath18.asm
                                           ;   VARIABLE ALLOCATION - Core math library routines                             C:\MCC18\SRC\TRADIT~1\MATH\cmath18.asm
                                           ;******************************************************************************* C:\MCC18\SRC\TRADIT~1\MATH\cmath18.asm
                                                                                                                            C:\MCC18\SRC\TRADIT~1\MATH\cmath18.asm
                                           MATH_DATA      UDATA_ACS                                                         C:\MCC18\SRC\TRADIT~1\MATH\cmath18.asm
                                                                                                                            C:\MCC18\SRC\TRADIT~1\MATH\cmath18.asm
                                           SIGN		RES 1       ; save location for sign in MSB                                C:\MCC18\SRC\TRADIT~1\MATH\cmath18.asm
                                           __FPFLAGSbits                                                                    C:\MCC18\SRC\TRADIT~1\MATH\cmath18.asm
                                           __FPFLAGS		RES 1       ; floating point library exception flags                  C:\MCC18\SRC\TRADIT~1\MATH\cmath18.asm
                                                                                                                            C:\MCC18\SRC\TRADIT~1\MATH\cmath18.asm
                                                   GLOBAL  SIGN, __FPFLAGS, __FPFLAGSbits                                   C:\MCC18\SRC\TRADIT~1\MATH\cmath18.asm
                                           	                                                                                C:\MCC18\SRC\TRADIT~1\MATH\cmath18.asm
                                                   END                                                                      C:\MCC18\SRC\TRADIT~1\MATH\cmath18.asm
                                                                                                                            C:\MCC18\src\TRADIT~1\stdclib\__init.c
                                           /** @name __init                                                                 C:\MCC18\src\TRADIT~1\stdclib\__init.c
                                            * The {\bf __init} is called if the linker can not find a                       C:\MCC18\src\TRADIT~1\stdclib\__init.c
                                            * user defined version for it                                                   C:\MCC18\src\TRADIT~1\stdclib\__init.c
                                            */                                                                              C:\MCC18\src\TRADIT~1\stdclib\__init.c
                                                                                                                            C:\MCC18\src\TRADIT~1\stdclib\__init.c
                                           void __init (void)                                                               C:\MCC18\src\TRADIT~1\stdclib\__init.c
                                           {                                                                                C:\MCC18\src\TRADIT~1\stdclib\__init.c
0016a2   0012     RETURN    0x0            }                                                                                C:\MCC18\src\TRADIT~1\stdclib\__init.c
                                                                                                                            C:\MCC18\src\TRADIT~1\stdclib\__init.c
